   1              		.code	16
   2              		.file	"md5.c"
  10              	.Ltext0:
  11              		.align	2
  12              		.global	MD5Init
  13              		.code	16
  14              		.thumb_func
  16              	MD5Init:
  17              	.LFB290:
  18              		.file 1 "rtos/common/ethernet/lwIP_132/src/netif/ppp/md5.c"
   1:rtos/common/ethernet/lwIP_132/src/netif/ppp/md5.c **** /*
   2:rtos/common/ethernet/lwIP_132/src/netif/ppp/md5.c ****  ***********************************************************************
   3:rtos/common/ethernet/lwIP_132/src/netif/ppp/md5.c ****  ** md5.c -- the source code for MD5 routines                         **
   4:rtos/common/ethernet/lwIP_132/src/netif/ppp/md5.c ****  ** RSA Data Security, Inc. MD5 Message-Digest Algorithm              **
   5:rtos/common/ethernet/lwIP_132/src/netif/ppp/md5.c ****  ** Created: 2/17/90 RLR                                              **
   6:rtos/common/ethernet/lwIP_132/src/netif/ppp/md5.c ****  ** Revised: 1/91 SRD,AJ,BSK,JT Reference C ver., 7/10 constant corr. **
   7:rtos/common/ethernet/lwIP_132/src/netif/ppp/md5.c ****  ***********************************************************************
   8:rtos/common/ethernet/lwIP_132/src/netif/ppp/md5.c ****  */
   9:rtos/common/ethernet/lwIP_132/src/netif/ppp/md5.c **** 
  10:rtos/common/ethernet/lwIP_132/src/netif/ppp/md5.c **** /*
  11:rtos/common/ethernet/lwIP_132/src/netif/ppp/md5.c ****  ***********************************************************************
  12:rtos/common/ethernet/lwIP_132/src/netif/ppp/md5.c ****  ** Copyright (C) 1990, RSA Data Security, Inc. All rights reserved.  **
  13:rtos/common/ethernet/lwIP_132/src/netif/ppp/md5.c ****  **                                                                   **
  14:rtos/common/ethernet/lwIP_132/src/netif/ppp/md5.c ****  ** License to copy and use this software is granted provided that    **
  15:rtos/common/ethernet/lwIP_132/src/netif/ppp/md5.c ****  ** it is identified as the "RSA Data Security, Inc. MD5 Message-     **
  16:rtos/common/ethernet/lwIP_132/src/netif/ppp/md5.c ****  ** Digest Algorithm" in all material mentioning or referencing this  **
  17:rtos/common/ethernet/lwIP_132/src/netif/ppp/md5.c ****  ** software or this function.                                        **
  18:rtos/common/ethernet/lwIP_132/src/netif/ppp/md5.c ****  **                                                                   **
  19:rtos/common/ethernet/lwIP_132/src/netif/ppp/md5.c ****  ** License is also granted to make and use derivative works          **
  20:rtos/common/ethernet/lwIP_132/src/netif/ppp/md5.c ****  ** provided that such works are identified as "derived from the RSA  **
  21:rtos/common/ethernet/lwIP_132/src/netif/ppp/md5.c ****  ** Data Security, Inc. MD5 Message-Digest Algorithm" in all          **
  22:rtos/common/ethernet/lwIP_132/src/netif/ppp/md5.c ****  ** material mentioning or referencing the derived work.              **
  23:rtos/common/ethernet/lwIP_132/src/netif/ppp/md5.c ****  **                                                                   **
  24:rtos/common/ethernet/lwIP_132/src/netif/ppp/md5.c ****  ** RSA Data Security, Inc. makes no representations concerning       **
  25:rtos/common/ethernet/lwIP_132/src/netif/ppp/md5.c ****  ** either the merchantability of this software or the suitability    **
  26:rtos/common/ethernet/lwIP_132/src/netif/ppp/md5.c ****  ** of this software for any particular purpose.  It is provided "as  **
  27:rtos/common/ethernet/lwIP_132/src/netif/ppp/md5.c ****  ** is" without express or implied warranty of any kind.              **
  28:rtos/common/ethernet/lwIP_132/src/netif/ppp/md5.c ****  **                                                                   **
  29:rtos/common/ethernet/lwIP_132/src/netif/ppp/md5.c ****  ** These notices must be retained in any copies of any part of this  **
  30:rtos/common/ethernet/lwIP_132/src/netif/ppp/md5.c ****  ** documentation and/or software.                                    **
  31:rtos/common/ethernet/lwIP_132/src/netif/ppp/md5.c ****  ***********************************************************************
  32:rtos/common/ethernet/lwIP_132/src/netif/ppp/md5.c ****  */
  33:rtos/common/ethernet/lwIP_132/src/netif/ppp/md5.c **** 
  34:rtos/common/ethernet/lwIP_132/src/netif/ppp/md5.c **** #include "lwip/opt.h"
  35:rtos/common/ethernet/lwIP_132/src/netif/ppp/md5.c **** 
  36:rtos/common/ethernet/lwIP_132/src/netif/ppp/md5.c **** #if PPP_SUPPORT /* don't build if not configured for use in lwipopts.h */
  37:rtos/common/ethernet/lwIP_132/src/netif/ppp/md5.c **** 
  38:rtos/common/ethernet/lwIP_132/src/netif/ppp/md5.c **** #if CHAP_SUPPORT || MD5_SUPPORT
  39:rtos/common/ethernet/lwIP_132/src/netif/ppp/md5.c **** 
  40:rtos/common/ethernet/lwIP_132/src/netif/ppp/md5.c **** #include "ppp.h"
  41:rtos/common/ethernet/lwIP_132/src/netif/ppp/md5.c **** #include "pppdebug.h"
  42:rtos/common/ethernet/lwIP_132/src/netif/ppp/md5.c **** 
  43:rtos/common/ethernet/lwIP_132/src/netif/ppp/md5.c **** #include "md5.h"
  44:rtos/common/ethernet/lwIP_132/src/netif/ppp/md5.c **** 
  45:rtos/common/ethernet/lwIP_132/src/netif/ppp/md5.c **** #include <string.h>
  46:rtos/common/ethernet/lwIP_132/src/netif/ppp/md5.c **** 
  47:rtos/common/ethernet/lwIP_132/src/netif/ppp/md5.c **** /*
  48:rtos/common/ethernet/lwIP_132/src/netif/ppp/md5.c ****  ***********************************************************************
  49:rtos/common/ethernet/lwIP_132/src/netif/ppp/md5.c ****  **  Message-digest routines:                                         **
  50:rtos/common/ethernet/lwIP_132/src/netif/ppp/md5.c ****  **  To form the message digest for a message M                       **
  51:rtos/common/ethernet/lwIP_132/src/netif/ppp/md5.c ****  **    (1) Initialize a context buffer mdContext using MD5Init        **
  52:rtos/common/ethernet/lwIP_132/src/netif/ppp/md5.c ****  **    (2) Call MD5Update on mdContext and M                          **
  53:rtos/common/ethernet/lwIP_132/src/netif/ppp/md5.c ****  **    (3) Call MD5Final on mdContext                                 **
  54:rtos/common/ethernet/lwIP_132/src/netif/ppp/md5.c ****  **  The message digest is now in mdContext->digest[0...15]           **
  55:rtos/common/ethernet/lwIP_132/src/netif/ppp/md5.c ****  ***********************************************************************
  56:rtos/common/ethernet/lwIP_132/src/netif/ppp/md5.c ****  */
  57:rtos/common/ethernet/lwIP_132/src/netif/ppp/md5.c **** 
  58:rtos/common/ethernet/lwIP_132/src/netif/ppp/md5.c **** /* forward declaration */
  59:rtos/common/ethernet/lwIP_132/src/netif/ppp/md5.c **** static void Transform (u32_t *buf, u32_t *in);
  60:rtos/common/ethernet/lwIP_132/src/netif/ppp/md5.c **** 
  61:rtos/common/ethernet/lwIP_132/src/netif/ppp/md5.c **** static unsigned char PADDING[64] = {
  62:rtos/common/ethernet/lwIP_132/src/netif/ppp/md5.c ****   0x80, 0x00, 0x00, 0x00, 0x00, 0x00, 0x00, 0x00,
  63:rtos/common/ethernet/lwIP_132/src/netif/ppp/md5.c ****   0x00, 0x00, 0x00, 0x00, 0x00, 0x00, 0x00, 0x00,
  64:rtos/common/ethernet/lwIP_132/src/netif/ppp/md5.c ****   0x00, 0x00, 0x00, 0x00, 0x00, 0x00, 0x00, 0x00,
  65:rtos/common/ethernet/lwIP_132/src/netif/ppp/md5.c ****   0x00, 0x00, 0x00, 0x00, 0x00, 0x00, 0x00, 0x00,
  66:rtos/common/ethernet/lwIP_132/src/netif/ppp/md5.c ****   0x00, 0x00, 0x00, 0x00, 0x00, 0x00, 0x00, 0x00,
  67:rtos/common/ethernet/lwIP_132/src/netif/ppp/md5.c ****   0x00, 0x00, 0x00, 0x00, 0x00, 0x00, 0x00, 0x00,
  68:rtos/common/ethernet/lwIP_132/src/netif/ppp/md5.c ****   0x00, 0x00, 0x00, 0x00, 0x00, 0x00, 0x00, 0x00,
  69:rtos/common/ethernet/lwIP_132/src/netif/ppp/md5.c ****   0x00, 0x00, 0x00, 0x00, 0x00, 0x00, 0x00, 0x00
  70:rtos/common/ethernet/lwIP_132/src/netif/ppp/md5.c **** };
  71:rtos/common/ethernet/lwIP_132/src/netif/ppp/md5.c **** 
  72:rtos/common/ethernet/lwIP_132/src/netif/ppp/md5.c **** /* F, G, H and I are basic MD5 functions */
  73:rtos/common/ethernet/lwIP_132/src/netif/ppp/md5.c **** #define F(x, y, z) (((x) & (y)) | ((~x) & (z)))
  74:rtos/common/ethernet/lwIP_132/src/netif/ppp/md5.c **** #define G(x, y, z) (((x) & (z)) | ((y) & (~z)))
  75:rtos/common/ethernet/lwIP_132/src/netif/ppp/md5.c **** #define H(x, y, z) ((x) ^ (y) ^ (z))
  76:rtos/common/ethernet/lwIP_132/src/netif/ppp/md5.c **** #define I(x, y, z) ((y) ^ ((x) | (~z)))
  77:rtos/common/ethernet/lwIP_132/src/netif/ppp/md5.c **** 
  78:rtos/common/ethernet/lwIP_132/src/netif/ppp/md5.c **** /* ROTATE_LEFT rotates x left n bits */
  79:rtos/common/ethernet/lwIP_132/src/netif/ppp/md5.c **** #define ROTATE_LEFT(x, n) (((x) << (n)) | ((x) >> (32-(n))))
  80:rtos/common/ethernet/lwIP_132/src/netif/ppp/md5.c **** 
  81:rtos/common/ethernet/lwIP_132/src/netif/ppp/md5.c **** /* FF, GG, HH, and II transformations for rounds 1, 2, 3, and 4 */
  82:rtos/common/ethernet/lwIP_132/src/netif/ppp/md5.c **** /* Rotation is separate from addition to prevent recomputation */
  83:rtos/common/ethernet/lwIP_132/src/netif/ppp/md5.c **** #define FF(a, b, c, d, x, s, ac) \
  84:rtos/common/ethernet/lwIP_132/src/netif/ppp/md5.c ****   {(a) += F ((b), (c), (d)) + (x) + (u32_t)(ac); \
  85:rtos/common/ethernet/lwIP_132/src/netif/ppp/md5.c ****    (a) = ROTATE_LEFT ((a), (s)); \
  86:rtos/common/ethernet/lwIP_132/src/netif/ppp/md5.c ****    (a) += (b); \
  87:rtos/common/ethernet/lwIP_132/src/netif/ppp/md5.c ****   }
  88:rtos/common/ethernet/lwIP_132/src/netif/ppp/md5.c **** #define GG(a, b, c, d, x, s, ac) \
  89:rtos/common/ethernet/lwIP_132/src/netif/ppp/md5.c ****   {(a) += G ((b), (c), (d)) + (x) + (u32_t)(ac); \
  90:rtos/common/ethernet/lwIP_132/src/netif/ppp/md5.c ****    (a) = ROTATE_LEFT ((a), (s)); \
  91:rtos/common/ethernet/lwIP_132/src/netif/ppp/md5.c ****    (a) += (b); \
  92:rtos/common/ethernet/lwIP_132/src/netif/ppp/md5.c ****   }
  93:rtos/common/ethernet/lwIP_132/src/netif/ppp/md5.c **** #define HH(a, b, c, d, x, s, ac) \
  94:rtos/common/ethernet/lwIP_132/src/netif/ppp/md5.c ****   {(a) += H ((b), (c), (d)) + (x) + (u32_t)(ac); \
  95:rtos/common/ethernet/lwIP_132/src/netif/ppp/md5.c ****    (a) = ROTATE_LEFT ((a), (s)); \
  96:rtos/common/ethernet/lwIP_132/src/netif/ppp/md5.c ****    (a) += (b); \
  97:rtos/common/ethernet/lwIP_132/src/netif/ppp/md5.c ****   }
  98:rtos/common/ethernet/lwIP_132/src/netif/ppp/md5.c **** #define II(a, b, c, d, x, s, ac) \
  99:rtos/common/ethernet/lwIP_132/src/netif/ppp/md5.c ****   {(a) += I ((b), (c), (d)) + (x) + (u32_t)(ac); \
 100:rtos/common/ethernet/lwIP_132/src/netif/ppp/md5.c ****    (a) = ROTATE_LEFT ((a), (s)); \
 101:rtos/common/ethernet/lwIP_132/src/netif/ppp/md5.c ****    (a) += (b); \
 102:rtos/common/ethernet/lwIP_132/src/netif/ppp/md5.c ****   }
 103:rtos/common/ethernet/lwIP_132/src/netif/ppp/md5.c **** 
 104:rtos/common/ethernet/lwIP_132/src/netif/ppp/md5.c **** #ifdef __STDC__
 105:rtos/common/ethernet/lwIP_132/src/netif/ppp/md5.c **** #define UL(x) x##UL
 106:rtos/common/ethernet/lwIP_132/src/netif/ppp/md5.c **** #else
 107:rtos/common/ethernet/lwIP_132/src/netif/ppp/md5.c **** #ifdef WIN32
 108:rtos/common/ethernet/lwIP_132/src/netif/ppp/md5.c **** #define UL(x) x##UL
 109:rtos/common/ethernet/lwIP_132/src/netif/ppp/md5.c **** #else
 110:rtos/common/ethernet/lwIP_132/src/netif/ppp/md5.c **** #define UL(x) x
 111:rtos/common/ethernet/lwIP_132/src/netif/ppp/md5.c **** #endif
 112:rtos/common/ethernet/lwIP_132/src/netif/ppp/md5.c **** #endif
 113:rtos/common/ethernet/lwIP_132/src/netif/ppp/md5.c **** 
 114:rtos/common/ethernet/lwIP_132/src/netif/ppp/md5.c **** /* The routine MD5Init initializes the message-digest context
 115:rtos/common/ethernet/lwIP_132/src/netif/ppp/md5.c ****    mdContext. All fields are set to zero.
 116:rtos/common/ethernet/lwIP_132/src/netif/ppp/md5.c ****  */
 117:rtos/common/ethernet/lwIP_132/src/netif/ppp/md5.c **** void
 118:rtos/common/ethernet/lwIP_132/src/netif/ppp/md5.c **** MD5Init (MD5_CTX *mdContext)
 119:rtos/common/ethernet/lwIP_132/src/netif/ppp/md5.c **** {
  19              		.loc 1 119 0
  20              	.LVL0:
 120:rtos/common/ethernet/lwIP_132/src/netif/ppp/md5.c ****   mdContext->i[0] = mdContext->i[1] = (u32_t)0;
  21              		.loc 1 120 0
  22 0000 0023     		mov	r3, #0
  23 0002 4360     		str	r3, [r0, #4]
  24 0004 0360     		str	r3, [r0]
 121:rtos/common/ethernet/lwIP_132/src/netif/ppp/md5.c **** 
 122:rtos/common/ethernet/lwIP_132/src/netif/ppp/md5.c ****   /* Load magic initialization constants. */
 123:rtos/common/ethernet/lwIP_132/src/netif/ppp/md5.c ****   mdContext->buf[0] = (u32_t)0x67452301UL;
  25              		.loc 1 123 0
  26 0006 044B     		ldr	r3, .L3
  27 0008 8360     		str	r3, [r0, #8]
 124:rtos/common/ethernet/lwIP_132/src/netif/ppp/md5.c ****   mdContext->buf[1] = (u32_t)0xefcdab89UL;
  28              		.loc 1 124 0
  29 000a 044B     		ldr	r3, .L3+4
  30 000c C360     		str	r3, [r0, #12]
 125:rtos/common/ethernet/lwIP_132/src/netif/ppp/md5.c ****   mdContext->buf[2] = (u32_t)0x98badcfeUL;
  31              		.loc 1 125 0
  32 000e 044B     		ldr	r3, .L3+8
  33 0010 0361     		str	r3, [r0, #16]
 126:rtos/common/ethernet/lwIP_132/src/netif/ppp/md5.c ****   mdContext->buf[3] = (u32_t)0x10325476UL;
  34              		.loc 1 126 0
  35 0012 044B     		ldr	r3, .L3+12
  36 0014 4361     		str	r3, [r0, #20]
 127:rtos/common/ethernet/lwIP_132/src/netif/ppp/md5.c **** }
  37              		.loc 1 127 0
  38              		@ sp needed for prologue
  39 0016 7047     		bx	lr
  40              	.L4:
  41              		.align	2
  42              	.L3:
  43 0018 01234567 		.word	1732584193
  44 001c 89ABCDEF 		.word	-271733879
  45 0020 FEDCBA98 		.word	-1732584194
  46 0024 76543210 		.word	271733878
  47              	.LFE290:
  49              		.align	2
  50              		.code	16
  51              		.thumb_func
  53              	Transform:
  54              	.LFB293:
 128:rtos/common/ethernet/lwIP_132/src/netif/ppp/md5.c **** 
 129:rtos/common/ethernet/lwIP_132/src/netif/ppp/md5.c **** /* The routine MD5Update updates the message-digest context to
 130:rtos/common/ethernet/lwIP_132/src/netif/ppp/md5.c ****    account for the presence of each of the characters inBuf[0..inLen-1]
 131:rtos/common/ethernet/lwIP_132/src/netif/ppp/md5.c ****    in the message whose digest is being computed.
 132:rtos/common/ethernet/lwIP_132/src/netif/ppp/md5.c ****  */
 133:rtos/common/ethernet/lwIP_132/src/netif/ppp/md5.c **** void
 134:rtos/common/ethernet/lwIP_132/src/netif/ppp/md5.c **** MD5Update(MD5_CTX *mdContext, unsigned char *inBuf, unsigned int inLen)
 135:rtos/common/ethernet/lwIP_132/src/netif/ppp/md5.c **** {
 136:rtos/common/ethernet/lwIP_132/src/netif/ppp/md5.c ****   u32_t in[16];
 137:rtos/common/ethernet/lwIP_132/src/netif/ppp/md5.c ****   int mdi;
 138:rtos/common/ethernet/lwIP_132/src/netif/ppp/md5.c ****   unsigned int i, ii;
 139:rtos/common/ethernet/lwIP_132/src/netif/ppp/md5.c **** 
 140:rtos/common/ethernet/lwIP_132/src/netif/ppp/md5.c **** #if 0
 141:rtos/common/ethernet/lwIP_132/src/netif/ppp/md5.c ****   ppp_trace(LOG_INFO, "MD5Update: %u:%.*H\n", inLen, MIN(inLen, 20) * 2, inBuf);
 142:rtos/common/ethernet/lwIP_132/src/netif/ppp/md5.c ****   ppp_trace(LOG_INFO, "MD5Update: %u:%s\n", inLen, inBuf);
 143:rtos/common/ethernet/lwIP_132/src/netif/ppp/md5.c **** #endif
 144:rtos/common/ethernet/lwIP_132/src/netif/ppp/md5.c ****   
 145:rtos/common/ethernet/lwIP_132/src/netif/ppp/md5.c ****   /* compute number of bytes mod 64 */
 146:rtos/common/ethernet/lwIP_132/src/netif/ppp/md5.c ****   mdi = (int)((mdContext->i[0] >> 3) & 0x3F);
 147:rtos/common/ethernet/lwIP_132/src/netif/ppp/md5.c **** 
 148:rtos/common/ethernet/lwIP_132/src/netif/ppp/md5.c ****   /* update number of bits */
 149:rtos/common/ethernet/lwIP_132/src/netif/ppp/md5.c ****   if ((mdContext->i[0] + ((u32_t)inLen << 3)) < mdContext->i[0]) {
 150:rtos/common/ethernet/lwIP_132/src/netif/ppp/md5.c ****     mdContext->i[1]++;
 151:rtos/common/ethernet/lwIP_132/src/netif/ppp/md5.c ****   }
 152:rtos/common/ethernet/lwIP_132/src/netif/ppp/md5.c ****   mdContext->i[0] += ((u32_t)inLen << 3);
 153:rtos/common/ethernet/lwIP_132/src/netif/ppp/md5.c ****   mdContext->i[1] += ((u32_t)inLen >> 29);
 154:rtos/common/ethernet/lwIP_132/src/netif/ppp/md5.c **** 
 155:rtos/common/ethernet/lwIP_132/src/netif/ppp/md5.c ****   while (inLen--) {
 156:rtos/common/ethernet/lwIP_132/src/netif/ppp/md5.c ****     /* add new character to buffer, increment mdi */
 157:rtos/common/ethernet/lwIP_132/src/netif/ppp/md5.c ****     mdContext->in[mdi++] = *inBuf++;
 158:rtos/common/ethernet/lwIP_132/src/netif/ppp/md5.c **** 
 159:rtos/common/ethernet/lwIP_132/src/netif/ppp/md5.c ****     /* transform if necessary */
 160:rtos/common/ethernet/lwIP_132/src/netif/ppp/md5.c ****     if (mdi == 0x40) {
 161:rtos/common/ethernet/lwIP_132/src/netif/ppp/md5.c ****       for (i = 0, ii = 0; i < 16; i++, ii += 4) {
 162:rtos/common/ethernet/lwIP_132/src/netif/ppp/md5.c ****         in[i] = (((u32_t)mdContext->in[ii+3]) << 24) |
 163:rtos/common/ethernet/lwIP_132/src/netif/ppp/md5.c ****                 (((u32_t)mdContext->in[ii+2]) << 16) |
 164:rtos/common/ethernet/lwIP_132/src/netif/ppp/md5.c ****                 (((u32_t)mdContext->in[ii+1]) << 8)  |
 165:rtos/common/ethernet/lwIP_132/src/netif/ppp/md5.c ****                 ((u32_t)mdContext->in[ii]);
 166:rtos/common/ethernet/lwIP_132/src/netif/ppp/md5.c ****       }
 167:rtos/common/ethernet/lwIP_132/src/netif/ppp/md5.c ****       Transform (mdContext->buf, in);
 168:rtos/common/ethernet/lwIP_132/src/netif/ppp/md5.c ****       mdi = 0;
 169:rtos/common/ethernet/lwIP_132/src/netif/ppp/md5.c ****     }
 170:rtos/common/ethernet/lwIP_132/src/netif/ppp/md5.c ****   }
 171:rtos/common/ethernet/lwIP_132/src/netif/ppp/md5.c **** }
 172:rtos/common/ethernet/lwIP_132/src/netif/ppp/md5.c **** 
 173:rtos/common/ethernet/lwIP_132/src/netif/ppp/md5.c **** /* The routine MD5Final terminates the message-digest computation and
 174:rtos/common/ethernet/lwIP_132/src/netif/ppp/md5.c ****    ends with the desired message digest in mdContext->digest[0...15].
 175:rtos/common/ethernet/lwIP_132/src/netif/ppp/md5.c ****  */
 176:rtos/common/ethernet/lwIP_132/src/netif/ppp/md5.c **** void
 177:rtos/common/ethernet/lwIP_132/src/netif/ppp/md5.c **** MD5Final (unsigned char hash[], MD5_CTX *mdContext)
 178:rtos/common/ethernet/lwIP_132/src/netif/ppp/md5.c **** {
 179:rtos/common/ethernet/lwIP_132/src/netif/ppp/md5.c ****   u32_t in[16];
 180:rtos/common/ethernet/lwIP_132/src/netif/ppp/md5.c ****   int mdi;
 181:rtos/common/ethernet/lwIP_132/src/netif/ppp/md5.c ****   unsigned int i, ii;
 182:rtos/common/ethernet/lwIP_132/src/netif/ppp/md5.c ****   unsigned int padLen;
 183:rtos/common/ethernet/lwIP_132/src/netif/ppp/md5.c **** 
 184:rtos/common/ethernet/lwIP_132/src/netif/ppp/md5.c ****   /* save number of bits */
 185:rtos/common/ethernet/lwIP_132/src/netif/ppp/md5.c ****   in[14] = mdContext->i[0];
 186:rtos/common/ethernet/lwIP_132/src/netif/ppp/md5.c ****   in[15] = mdContext->i[1];
 187:rtos/common/ethernet/lwIP_132/src/netif/ppp/md5.c **** 
 188:rtos/common/ethernet/lwIP_132/src/netif/ppp/md5.c ****   /* compute number of bytes mod 64 */
 189:rtos/common/ethernet/lwIP_132/src/netif/ppp/md5.c ****   mdi = (int)((mdContext->i[0] >> 3) & 0x3F);
 190:rtos/common/ethernet/lwIP_132/src/netif/ppp/md5.c **** 
 191:rtos/common/ethernet/lwIP_132/src/netif/ppp/md5.c ****   /* pad out to 56 mod 64 */
 192:rtos/common/ethernet/lwIP_132/src/netif/ppp/md5.c ****   padLen = (mdi < 56) ? (56 - mdi) : (120 - mdi);
 193:rtos/common/ethernet/lwIP_132/src/netif/ppp/md5.c ****   MD5Update (mdContext, PADDING, padLen);
 194:rtos/common/ethernet/lwIP_132/src/netif/ppp/md5.c **** 
 195:rtos/common/ethernet/lwIP_132/src/netif/ppp/md5.c ****   /* append length in bits and transform */
 196:rtos/common/ethernet/lwIP_132/src/netif/ppp/md5.c ****   for (i = 0, ii = 0; i < 14; i++, ii += 4) {
 197:rtos/common/ethernet/lwIP_132/src/netif/ppp/md5.c ****     in[i] = (((u32_t)mdContext->in[ii+3]) << 24) |
 198:rtos/common/ethernet/lwIP_132/src/netif/ppp/md5.c ****             (((u32_t)mdContext->in[ii+2]) << 16) |
 199:rtos/common/ethernet/lwIP_132/src/netif/ppp/md5.c ****             (((u32_t)mdContext->in[ii+1]) << 8)  |
 200:rtos/common/ethernet/lwIP_132/src/netif/ppp/md5.c ****             ((u32_t)mdContext->in[ii]);
 201:rtos/common/ethernet/lwIP_132/src/netif/ppp/md5.c ****   }
 202:rtos/common/ethernet/lwIP_132/src/netif/ppp/md5.c ****   Transform (mdContext->buf, in);
 203:rtos/common/ethernet/lwIP_132/src/netif/ppp/md5.c **** 
 204:rtos/common/ethernet/lwIP_132/src/netif/ppp/md5.c ****   /* store buffer in digest */
 205:rtos/common/ethernet/lwIP_132/src/netif/ppp/md5.c ****   for (i = 0, ii = 0; i < 4; i++, ii += 4) {
 206:rtos/common/ethernet/lwIP_132/src/netif/ppp/md5.c ****     mdContext->digest[ii]   = (unsigned char)(mdContext->buf[i] & 0xFF);
 207:rtos/common/ethernet/lwIP_132/src/netif/ppp/md5.c ****     mdContext->digest[ii+1] =
 208:rtos/common/ethernet/lwIP_132/src/netif/ppp/md5.c ****       (unsigned char)((mdContext->buf[i] >> 8)  & 0xFF);
 209:rtos/common/ethernet/lwIP_132/src/netif/ppp/md5.c ****     mdContext->digest[ii+2] =
 210:rtos/common/ethernet/lwIP_132/src/netif/ppp/md5.c ****       (unsigned char)((mdContext->buf[i] >> 16) & 0xFF);
 211:rtos/common/ethernet/lwIP_132/src/netif/ppp/md5.c ****     mdContext->digest[ii+3] =
 212:rtos/common/ethernet/lwIP_132/src/netif/ppp/md5.c ****       (unsigned char)((mdContext->buf[i] >> 24) & 0xFF);
 213:rtos/common/ethernet/lwIP_132/src/netif/ppp/md5.c ****   }
 214:rtos/common/ethernet/lwIP_132/src/netif/ppp/md5.c ****   SMEMCPY(hash, mdContext->digest, 16);
 215:rtos/common/ethernet/lwIP_132/src/netif/ppp/md5.c **** }
 216:rtos/common/ethernet/lwIP_132/src/netif/ppp/md5.c **** 
 217:rtos/common/ethernet/lwIP_132/src/netif/ppp/md5.c **** /* Basic MD5 step. Transforms buf based on in.
 218:rtos/common/ethernet/lwIP_132/src/netif/ppp/md5.c ****  */
 219:rtos/common/ethernet/lwIP_132/src/netif/ppp/md5.c **** static void
 220:rtos/common/ethernet/lwIP_132/src/netif/ppp/md5.c **** Transform (u32_t *buf, u32_t *in)
 221:rtos/common/ethernet/lwIP_132/src/netif/ppp/md5.c **** {
  55              		.loc 1 221 0
  56 0028 F0B5     		push	{r4, r5, r6, r7, lr}
  57              	.LCFI0:
  58 002a 5F46     		mov	r7, fp
  59 002c 5646     		mov	r6, sl
  60 002e 4D46     		mov	r5, r9
  61 0030 4446     		mov	r4, r8
  62 0032 F0B4     		push	{r4, r5, r6, r7}
  63              	.LCFI1:
  64              	.LVL1:
  65 0034 93B0     		sub	sp, sp, #76
  66              	.LCFI2:
 222:rtos/common/ethernet/lwIP_132/src/netif/ppp/md5.c ****   u32_t a = buf[0], b = buf[1], c = buf[2], d = buf[3];
  67              		.loc 1 222 0
  68 0036 0090     		str	r0, [sp]
  69 0038 031C     		mov	r3, r0
  70 003a 04CB     		ldmia	r3!, {r2}
  71 003c 0093     		str	r3, [sp]
  72 003e 1292     		str	r2, [sp, #72]
  73              	.LVL2:
  74 0040 1C68     		ldr	r4, [r3]
  75 0042 A046     		mov	r8, r4
  76              	.LVL3:
  77 0044 051C     		mov	r5, r0
  78 0046 0835     		add	r5, r5, #8
  79 0048 0195     		str	r5, [sp, #4]
  80 004a 2E68     		ldr	r6, [r5]
  81 004c B446     		mov	ip, r6
  82              	.LVL4:
  83 004e 071C     		mov	r7, r0
  84 0050 0C37     		add	r7, r7, #12
  85 0052 0297     		str	r7, [sp, #8]
  86 0054 3C68     		ldr	r4, [r7]
  87              	.LVL5:
 223:rtos/common/ethernet/lwIP_132/src/netif/ppp/md5.c **** 
 224:rtos/common/ethernet/lwIP_132/src/netif/ppp/md5.c ****   /* Round 1 */
 225:rtos/common/ethernet/lwIP_132/src/netif/ppp/md5.c **** #define S11 7
 226:rtos/common/ethernet/lwIP_132/src/netif/ppp/md5.c **** #define S12 12
 227:rtos/common/ethernet/lwIP_132/src/netif/ppp/md5.c **** #define S13 17
 228:rtos/common/ethernet/lwIP_132/src/netif/ppp/md5.c **** #define S14 22
 229:rtos/common/ethernet/lwIP_132/src/netif/ppp/md5.c ****   FF ( a, b, c, d, in[ 0], S11, UL(3614090360)); /* 1 */
  88              		.loc 1 229 0
  89 0056 0A68     		ldr	r2, [r1]
  90 0058 0392     		str	r2, [sp, #12]
  91 005a 129B     		ldr	r3, [sp, #72]
  92 005c FE4D     		ldr	r5, .L7
  93 005e 5E19     		add	r6, r3, r5
  94 0060 B618     		add	r6, r6, r2
  95 0062 231C     		mov	r3, r4
  96 0064 4746     		mov	r7, r8
  97 0066 BB43     		bic	r3, r3, r7
  98 0068 6246     		mov	r2, ip
  99 006a 3A40     		and	r2, r2, r7
 100 006c 1343     		orr	r3, r3, r2
 101 006e F618     		add	r6, r6, r3
 102              	.LVL6:
 103 0070 1922     		mov	r2, #25
 104 0072 9246     		mov	sl, r2
 105 0074 D641     		ror	r6, r6, r2
 106              	.LVL7:
 107 0076 4644     		add	r6, r6, r8
 108              	.LVL8:
 230:rtos/common/ethernet/lwIP_132/src/netif/ppp/md5.c ****   FF ( d, a, b, c, in[ 1], S12, UL(3905402710)); /* 2 */
 109              		.loc 1 230 0
 110 0078 4B68     		ldr	r3, [r1, #4]
 111 007a 0493     		str	r3, [sp, #16]
 112 007c F74D     		ldr	r5, .L7+4
 113 007e 6419     		add	r4, r4, r5
 114              	.LVL9:
 115 0080 E418     		add	r4, r4, r3
 116 0082 6346     		mov	r3, ip
 117 0084 B343     		bic	r3, r3, r6
 118 0086 4246     		mov	r2, r8
 119 0088 3240     		and	r2, r2, r6
 120 008a 1343     		orr	r3, r3, r2
 121 008c E418     		add	r4, r4, r3
 122              	.LVL10:
 123 008e 1427     		mov	r7, #20
 124 0090 BB46     		mov	fp, r7
 125 0092 FC41     		ror	r4, r4, r7
 126              	.LVL11:
 127 0094 A419     		add	r4, r4, r6
 128              	.LVL12:
 231:rtos/common/ethernet/lwIP_132/src/netif/ppp/md5.c ****   FF ( c, d, a, b, in[ 2], S13, UL( 606105819)); /* 3 */
 129              		.loc 1 231 0
 130 0096 8A68     		ldr	r2, [r1, #8]
 131 0098 0592     		str	r2, [sp, #20]
 132 009a F14B     		ldr	r3, .L7+8
 133 009c 9C44     		add	ip, ip, r3
 134              	.LVL13:
 135 009e 9444     		add	ip, ip, r2
 136 00a0 4346     		mov	r3, r8
 137 00a2 A343     		bic	r3, r3, r4
 138 00a4 221C     		mov	r2, r4
 139 00a6 3240     		and	r2, r2, r6
 140 00a8 1343     		orr	r3, r3, r2
 141 00aa 9C44     		add	ip, ip, r3
 142              	.LVL14:
 143 00ac 0F27     		mov	r7, #15
 144 00ae 6546     		mov	r5, ip
 145 00b0 FD41     		ror	r5, r5, r7
 146 00b2 AC46     		mov	ip, r5
 147              	.LVL15:
 148 00b4 A444     		add	ip, ip, r4
 149              	.LVL16:
 232:rtos/common/ethernet/lwIP_132/src/netif/ppp/md5.c ****   FF ( b, c, d, a, in[ 3], S14, UL(3250441966)); /* 4 */
 150              		.loc 1 232 0
 151 00b6 CA68     		ldr	r2, [r1, #12]
 152 00b8 0692     		str	r2, [sp, #24]
 153 00ba EA4B     		ldr	r3, .L7+12
 154 00bc 9844     		add	r8, r8, r3
 155              	.LVL17:
 156 00be 9044     		add	r8, r8, r2
 157 00c0 331C     		mov	r3, r6
 158 00c2 6546     		mov	r5, ip
 159 00c4 AB43     		bic	r3, r3, r5
 160 00c6 6246     		mov	r2, ip
 161 00c8 2240     		and	r2, r2, r4
 162 00ca 1343     		orr	r3, r3, r2
 163 00cc 9844     		add	r8, r8, r3
 164              	.LVL18:
 165 00ce 4246     		mov	r2, r8
 166 00d0 0A23     		mov	r3, #10
 167 00d2 DA41     		ror	r2, r2, r3
 168 00d4 9046     		mov	r8, r2
 169              	.LVL19:
 170 00d6 E044     		add	r8, r8, ip
 171              	.LVL20:
 233:rtos/common/ethernet/lwIP_132/src/netif/ppp/md5.c ****   FF ( a, b, c, d, in[ 4], S11, UL(4118548399)); /* 5 */
 172              		.loc 1 233 0
 173 00d8 0D69     		ldr	r5, [r1, #16]
 174 00da 0795     		str	r5, [sp, #28]
 175 00dc E24A     		ldr	r2, .L7+16
 176 00de AD18     		add	r5, r5, r2
 177 00e0 AD19     		add	r5, r5, r6
 178 00e2 231C     		mov	r3, r4
 179 00e4 4646     		mov	r6, r8
 180              	.LVL21:
 181 00e6 B343     		bic	r3, r3, r6
 182 00e8 4246     		mov	r2, r8
 183 00ea 6646     		mov	r6, ip
 184 00ec 3240     		and	r2, r2, r6
 185 00ee 1343     		orr	r3, r3, r2
 186 00f0 ED18     		add	r5, r5, r3
 187              	.LVL22:
 188 00f2 5246     		mov	r2, sl
 189 00f4 D541     		ror	r5, r5, r2
 190              	.LVL23:
 191 00f6 4544     		add	r5, r5, r8
 192              	.LVL24:
 234:rtos/common/ethernet/lwIP_132/src/netif/ppp/md5.c ****   FF ( d, a, b, c, in[ 5], S12, UL(1200080426)); /* 6 */
 193              		.loc 1 234 0
 194 00f8 4B69     		ldr	r3, [r1, #20]
 195 00fa 0893     		str	r3, [sp, #32]
 196 00fc DB4A     		ldr	r2, .L7+20
 197 00fe 9E18     		add	r6, r3, r2
 198 0100 3619     		add	r6, r6, r4
 199 0102 6346     		mov	r3, ip
 200 0104 AB43     		bic	r3, r3, r5
 201 0106 4246     		mov	r2, r8
 202 0108 2A40     		and	r2, r2, r5
 203 010a 1343     		orr	r3, r3, r2
 204 010c F618     		add	r6, r6, r3
 205              	.LVL25:
 206 010e 5B46     		mov	r3, fp
 207 0110 DE41     		ror	r6, r6, r3
 208              	.LVL26:
 209 0112 7619     		add	r6, r6, r5
 210              	.LVL27:
 235:rtos/common/ethernet/lwIP_132/src/netif/ppp/md5.c ****   FF ( c, d, a, b, in[ 6], S13, UL(2821735955)); /* 7 */
 211              		.loc 1 235 0
 212 0114 8C69     		ldr	r4, [r1, #24]
 213 0116 0994     		str	r4, [sp, #36]
 214 0118 D54A     		ldr	r2, .L7+24
 215 011a A418     		add	r4, r4, r2
 216 011c 6444     		add	r4, r4, ip
 217 011e 4346     		mov	r3, r8
 218 0120 B343     		bic	r3, r3, r6
 219 0122 321C     		mov	r2, r6
 220 0124 2A40     		and	r2, r2, r5
 221 0126 1343     		orr	r3, r3, r2
 222 0128 E418     		add	r4, r4, r3
 223              	.LVL28:
 224 012a FC41     		ror	r4, r4, r7
 225              	.LVL29:
 226 012c A419     		add	r4, r4, r6
 227              	.LVL30:
 236:rtos/common/ethernet/lwIP_132/src/netif/ppp/md5.c ****   FF ( b, c, d, a, in[ 7], S14, UL(4249261313)); /* 8 */
 228              		.loc 1 236 0
 229 012e CB69     		ldr	r3, [r1, #28]
 230 0130 0A93     		str	r3, [sp, #40]
 231 0132 D04A     		ldr	r2, .L7+28
 232 0134 9B18     		add	r3, r3, r2
 233 0136 9C46     		mov	ip, r3
 234 0138 C444     		add	ip, ip, r8
 235 013a 2B1C     		mov	r3, r5
 236 013c A343     		bic	r3, r3, r4
 237 013e 221C     		mov	r2, r4
 238 0140 3240     		and	r2, r2, r6
 239 0142 1343     		orr	r3, r3, r2
 240 0144 9C44     		add	ip, ip, r3
 241              	.LVL31:
 242 0146 6346     		mov	r3, ip
 243 0148 0A22     		mov	r2, #10
 244 014a D341     		ror	r3, r3, r2
 245 014c 9C46     		mov	ip, r3
 246              	.LVL32:
 247 014e A444     		add	ip, ip, r4
 248              	.LVL33:
 237:rtos/common/ethernet/lwIP_132/src/netif/ppp/md5.c ****   FF ( a, b, c, d, in[ 8], S11, UL(1770035416)); /* 9 */
 249              		.loc 1 237 0
 250 0150 0B6A     		ldr	r3, [r1, #32]
 251 0152 0B93     		str	r3, [sp, #44]
 252 0154 C84A     		ldr	r2, .L7+32
 253 0156 9B18     		add	r3, r3, r2
 254 0158 9846     		mov	r8, r3
 255 015a A844     		add	r8, r8, r5
 256 015c 331C     		mov	r3, r6
 257 015e 6546     		mov	r5, ip
 258              	.LVL34:
 259 0160 AB43     		bic	r3, r3, r5
 260 0162 6246     		mov	r2, ip
 261 0164 2240     		and	r2, r2, r4
 262 0166 1343     		orr	r3, r3, r2
 263 0168 9844     		add	r8, r8, r3
 264              	.LVL35:
 265 016a 4246     		mov	r2, r8
 266 016c 5346     		mov	r3, sl
 267 016e DA41     		ror	r2, r2, r3
 268 0170 9046     		mov	r8, r2
 269              	.LVL36:
 270 0172 E044     		add	r8, r8, ip
 271              	.LVL37:
 238:rtos/common/ethernet/lwIP_132/src/netif/ppp/md5.c ****   FF ( d, a, b, c, in[ 9], S12, UL(2336552879)); /* 10 */
 272              		.loc 1 238 0
 273 0174 4D6A     		ldr	r5, [r1, #36]
 274 0176 0C95     		str	r5, [sp, #48]
 275 0178 C04A     		ldr	r2, .L7+36
 276 017a AD18     		add	r5, r5, r2
 277 017c AD19     		add	r5, r5, r6
 278 017e 231C     		mov	r3, r4
 279 0180 4646     		mov	r6, r8
 280              	.LVL38:
 281 0182 B343     		bic	r3, r3, r6
 282 0184 4246     		mov	r2, r8
 283 0186 6646     		mov	r6, ip
 284 0188 3240     		and	r2, r2, r6
 285 018a 1343     		orr	r3, r3, r2
 286 018c ED18     		add	r5, r5, r3
 287              	.LVL39:
 288 018e 5A46     		mov	r2, fp
 289 0190 D541     		ror	r5, r5, r2
 290              	.LVL40:
 291 0192 4544     		add	r5, r5, r8
 292              	.LVL41:
 239:rtos/common/ethernet/lwIP_132/src/netif/ppp/md5.c ****   FF ( c, d, a, b, in[10], S13, UL(4294925233)); /* 11 */
 293              		.loc 1 239 0
 294 0194 8B6A     		ldr	r3, [r1, #40]
 295 0196 0D93     		str	r3, [sp, #52]
 296 0198 B94A     		ldr	r2, .L7+40
 297 019a 9E18     		add	r6, r3, r2
 298 019c 3619     		add	r6, r6, r4
 299 019e 6346     		mov	r3, ip
 300 01a0 AB43     		bic	r3, r3, r5
 301 01a2 4246     		mov	r2, r8
 302 01a4 2A40     		and	r2, r2, r5
 303 01a6 1343     		orr	r3, r3, r2
 304 01a8 F618     		add	r6, r6, r3
 305              	.LVL42:
 306 01aa FE41     		ror	r6, r6, r7
 307              	.LVL43:
 308 01ac 7619     		add	r6, r6, r5
 309              	.LVL44:
 240:rtos/common/ethernet/lwIP_132/src/netif/ppp/md5.c ****   FF ( b, c, d, a, in[11], S14, UL(2304563134)); /* 12 */
 310              		.loc 1 240 0
 311 01ae CB6A     		ldr	r3, [r1, #44]
 312 01b0 0E93     		str	r3, [sp, #56]
 313 01b2 B44C     		ldr	r4, .L7+44
 314 01b4 1B19     		add	r3, r3, r4
 315 01b6 9946     		mov	r9, r3
 316 01b8 E144     		add	r9, r9, ip
 317 01ba 4346     		mov	r3, r8
 318 01bc B343     		bic	r3, r3, r6
 319 01be 321C     		mov	r2, r6
 320 01c0 2A40     		and	r2, r2, r5
 321 01c2 1343     		orr	r3, r3, r2
 322 01c4 9944     		add	r9, r9, r3
 323              	.LVL45:
 324 01c6 4A46     		mov	r2, r9
 325 01c8 0A23     		mov	r3, #10
 326 01ca DA41     		ror	r2, r2, r3
 327 01cc 9146     		mov	r9, r2
 328              	.LVL46:
 329 01ce B144     		add	r9, r9, r6
 330              	.LVL47:
 241:rtos/common/ethernet/lwIP_132/src/netif/ppp/md5.c ****   FF ( a, b, c, d, in[12], S11, UL(1804603682)); /* 13 */
 331              		.loc 1 241 0
 332 01d0 0C6B     		ldr	r4, [r1, #48]
 333 01d2 0F94     		str	r4, [sp, #60]
 334 01d4 AC4A     		ldr	r2, .L7+48
 335 01d6 A418     		add	r4, r4, r2
 336 01d8 A446     		mov	ip, r4
 337 01da C444     		add	ip, ip, r8
 338 01dc 2B1C     		mov	r3, r5
 339 01de 4C46     		mov	r4, r9
 340 01e0 A343     		bic	r3, r3, r4
 341 01e2 4A46     		mov	r2, r9
 342 01e4 3240     		and	r2, r2, r6
 343 01e6 1343     		orr	r3, r3, r2
 344 01e8 9C44     		add	ip, ip, r3
 345              	.LVL48:
 346 01ea 6246     		mov	r2, ip
 347 01ec 5346     		mov	r3, sl
 348 01ee DA41     		ror	r2, r2, r3
 349 01f0 9446     		mov	ip, r2
 350              	.LVL49:
 351 01f2 CC44     		add	ip, ip, r9
 352              	.LVL50:
 242:rtos/common/ethernet/lwIP_132/src/netif/ppp/md5.c ****   FF ( d, a, b, c, in[13], S12, UL(4254626195)); /* 14 */
 353              		.loc 1 242 0
 354 01f4 4C6B     		ldr	r4, [r1, #52]
 355 01f6 1094     		str	r4, [sp, #64]
 356 01f8 A44A     		ldr	r2, .L7+52
 357 01fa A418     		add	r4, r4, r2
 358 01fc A246     		mov	sl, r4
 359 01fe AA44     		add	sl, sl, r5
 360 0200 331C     		mov	r3, r6
 361 0202 6446     		mov	r4, ip
 362 0204 A343     		bic	r3, r3, r4
 363 0206 6246     		mov	r2, ip
 364 0208 4D46     		mov	r5, r9
 365              	.LVL51:
 366 020a 2A40     		and	r2, r2, r5
 367 020c 1343     		orr	r3, r3, r2
 368 020e 9A44     		add	sl, sl, r3
 369              	.LVL52:
 370 0210 5246     		mov	r2, sl
 371 0212 5B46     		mov	r3, fp
 372 0214 DA41     		ror	r2, r2, r3
 373 0216 9246     		mov	sl, r2
 374              	.LVL53:
 375 0218 E244     		add	sl, sl, ip
 376              	.LVL54:
 243:rtos/common/ethernet/lwIP_132/src/netif/ppp/md5.c ****   FF ( c, d, a, b, in[14], S13, UL(2792965006)); /* 15 */
 377              		.loc 1 243 0
 378 021a 5446     		mov	r4, sl
 379 021c E543     		mvn	r5, r4
 380 021e 8A6B     		ldr	r2, [r1, #56]
 381 0220 9346     		mov	fp, r2
 382 0222 9B4C     		ldr	r4, .L7+56
 383 0224 5C44     		add	r4, r4, fp
 384 0226 A419     		add	r4, r4, r6
 385 0228 4B46     		mov	r3, r9
 386 022a 2B40     		and	r3, r3, r5
 387 022c 5246     		mov	r2, sl
 388 022e 6646     		mov	r6, ip
 389              	.LVL55:
 390 0230 3240     		and	r2, r2, r6
 391 0232 1343     		orr	r3, r3, r2
 392 0234 E418     		add	r4, r4, r3
 393              	.LVL56:
 394 0236 FC41     		ror	r4, r4, r7
 395              	.LVL57:
 396 0238 5444     		add	r4, r4, sl
 397              	.LVL58:
 244:rtos/common/ethernet/lwIP_132/src/netif/ppp/md5.c ****   FF ( b, c, d, a, in[15], S14, UL(1236535329)); /* 16 */
 398              		.loc 1 244 0
 399 023a E643     		mvn	r6, r4
 400 023c C96B     		ldr	r1, [r1, #60]
 401              	.LVL59:
 402 023e 1191     		str	r1, [sp, #68]
 403 0240 944F     		ldr	r7, .L7+60
 404 0242 C919     		add	r1, r1, r7
 405 0244 4944     		add	r1, r1, r9
 406 0246 6346     		mov	r3, ip
 407 0248 3340     		and	r3, r3, r6
 408 024a 5246     		mov	r2, sl
 409 024c 2240     		and	r2, r2, r4
 410 024e 1343     		orr	r3, r3, r2
 411 0250 C918     		add	r1, r1, r3
 412              	.LVL60:
 413 0252 0A22     		mov	r2, #10
 414 0254 D141     		ror	r1, r1, r2
 415              	.LVL61:
 416 0256 0919     		add	r1, r1, r4
 417              	.LVL62:
 245:rtos/common/ethernet/lwIP_132/src/netif/ppp/md5.c **** 
 246:rtos/common/ethernet/lwIP_132/src/netif/ppp/md5.c ****   /* Round 2 */
 247:rtos/common/ethernet/lwIP_132/src/netif/ppp/md5.c **** #define S21 5
 248:rtos/common/ethernet/lwIP_132/src/netif/ppp/md5.c **** #define S22 9
 249:rtos/common/ethernet/lwIP_132/src/netif/ppp/md5.c **** #define S23 14
 250:rtos/common/ethernet/lwIP_132/src/netif/ppp/md5.c **** #define S24 20
 251:rtos/common/ethernet/lwIP_132/src/netif/ppp/md5.c ****   GG ( a, b, c, d, in[ 1], S21, UL(4129170786)); /* 17 */
 418              		.loc 1 251 0
 419 0258 049B     		ldr	r3, [sp, #16]
 420 025a 8F4F     		ldr	r7, .L7+64
 421 025c DB19     		add	r3, r3, r7
 422 025e 9846     		mov	r8, r3
 423 0260 E044     		add	r8, r8, ip
 424 0262 5346     		mov	r3, sl
 425 0264 0B40     		and	r3, r3, r1
 426 0266 221C     		mov	r2, r4
 427 0268 2A40     		and	r2, r2, r5
 428 026a 1343     		orr	r3, r3, r2
 429 026c 9844     		add	r8, r8, r3
 430              	.LVL63:
 431 026e 4246     		mov	r2, r8
 432 0270 1B23     		mov	r3, #27
 433 0272 DA41     		ror	r2, r2, r3
 434 0274 9046     		mov	r8, r2
 435              	.LVL64:
 436 0276 8844     		add	r8, r8, r1
 437              	.LVL65:
 252:rtos/common/ethernet/lwIP_132/src/netif/ppp/md5.c ****   GG ( d, a, b, c, in[ 6], S22, UL(3225465664)); /* 18 */
 438              		.loc 1 252 0
 439 0278 099F     		ldr	r7, [sp, #36]
 440 027a 884A     		ldr	r2, .L7+68
 441 027c BD18     		add	r5, r7, r2
 442 027e 5544     		add	r5, r5, sl
 443 0280 4346     		mov	r3, r8
 444 0282 2340     		and	r3, r3, r4
 445 0284 0A1C     		mov	r2, r1
 446 0286 3240     		and	r2, r2, r6
 447 0288 1343     		orr	r3, r3, r2
 448 028a ED18     		add	r5, r5, r3
 449              	.LVL66:
 450 028c 1727     		mov	r7, #23
 451 028e FD41     		ror	r5, r5, r7
 452              	.LVL67:
 453 0290 4544     		add	r5, r5, r8
 454              	.LVL68:
 253:rtos/common/ethernet/lwIP_132/src/netif/ppp/md5.c ****   GG ( c, d, a, b, in[11], S23, UL( 643717713)); /* 19 */
 455              		.loc 1 253 0
 456 0292 0E9B     		ldr	r3, [sp, #56]
 457 0294 824A     		ldr	r2, .L7+72
 458 0296 9E18     		add	r6, r3, r2
 459 0298 3619     		add	r6, r6, r4
 460 029a 2B1C     		mov	r3, r5
 461 029c 0B40     		and	r3, r3, r1
 462 029e 4246     		mov	r2, r8
 463 02a0 8A43     		bic	r2, r2, r1
 464 02a2 1343     		orr	r3, r3, r2
 465 02a4 F618     		add	r6, r6, r3
 466              	.LVL69:
 467 02a6 1223     		mov	r3, #18
 468 02a8 9946     		mov	r9, r3
 469 02aa DE41     		ror	r6, r6, r3
 470              	.LVL70:
 471 02ac 7619     		add	r6, r6, r5
 472              	.LVL71:
 254:rtos/common/ethernet/lwIP_132/src/netif/ppp/md5.c ****   GG ( b, c, d, a, in[ 0], S24, UL(3921069994)); /* 20 */
 473              		.loc 1 254 0
 474 02ae 039C     		ldr	r4, [sp, #12]
 475 02b0 7C4A     		ldr	r2, .L7+76
 476 02b2 A418     		add	r4, r4, r2
 477 02b4 A446     		mov	ip, r4
 478 02b6 8C44     		add	ip, ip, r1
 479 02b8 4346     		mov	r3, r8
 480 02ba 3340     		and	r3, r3, r6
 481 02bc 2A1C     		mov	r2, r5
 482 02be 4446     		mov	r4, r8
 483 02c0 A243     		bic	r2, r2, r4
 484 02c2 1343     		orr	r3, r3, r2
 485 02c4 9C44     		add	ip, ip, r3
 486              	.LVL72:
 487 02c6 0C21     		mov	r1, #12
 488 02c8 8A46     		mov	sl, r1
 489 02ca 6246     		mov	r2, ip
 490 02cc CA41     		ror	r2, r2, r1
 491 02ce 9446     		mov	ip, r2
 492              	.LVL73:
 493 02d0 B444     		add	ip, ip, r6
 494              	.LVL74:
 255:rtos/common/ethernet/lwIP_132/src/netif/ppp/md5.c ****   GG ( a, b, c, d, in[ 5], S21, UL(3593408605)); /* 21 */
 495              		.loc 1 255 0
 496 02d2 089B     		ldr	r3, [sp, #32]
 497 02d4 744C     		ldr	r4, .L7+80
 498 02d6 1919     		add	r1, r3, r4
 499 02d8 4144     		add	r1, r1, r8
 500 02da 6346     		mov	r3, ip
 501 02dc 2B40     		and	r3, r3, r5
 502 02de 321C     		mov	r2, r6
 503 02e0 AA43     		bic	r2, r2, r5
 504 02e2 1343     		orr	r3, r3, r2
 505 02e4 C918     		add	r1, r1, r3
 506              	.LVL75:
 507 02e6 1B22     		mov	r2, #27
 508 02e8 D141     		ror	r1, r1, r2
 509              	.LVL76:
 510 02ea 6144     		add	r1, r1, ip
 511              	.LVL77:
 256:rtos/common/ethernet/lwIP_132/src/netif/ppp/md5.c ****   GG ( d, a, b, c, in[10], S22, UL(  38016083)); /* 22 */
 512              		.loc 1 256 0
 513 02ec 0D9B     		ldr	r3, [sp, #52]
 514 02ee 6F4A     		ldr	r2, .L7+84
 515 02f0 9C18     		add	r4, r3, r2
 516 02f2 6419     		add	r4, r4, r5
 517 02f4 0B1C     		mov	r3, r1
 518 02f6 3340     		and	r3, r3, r6
 519 02f8 6246     		mov	r2, ip
 520 02fa B243     		bic	r2, r2, r6
 521 02fc 1343     		orr	r3, r3, r2
 522 02fe E418     		add	r4, r4, r3
 523              	.LVL78:
 524 0300 FC41     		ror	r4, r4, r7
 525              	.LVL79:
 526 0302 6418     		add	r4, r4, r1
 527              	.LVL80:
 257:rtos/common/ethernet/lwIP_132/src/netif/ppp/md5.c ****   GG ( c, d, a, b, in[15], S23, UL(3634488961)); /* 23 */
 528              		.loc 1 257 0
 529 0304 119B     		ldr	r3, [sp, #68]
 530 0306 6A4A     		ldr	r2, .L7+88
 531 0308 9D18     		add	r5, r3, r2
 532 030a AD19     		add	r5, r5, r6
 533 030c 6346     		mov	r3, ip
 534 030e 2340     		and	r3, r3, r4
 535 0310 0A1C     		mov	r2, r1
 536 0312 6646     		mov	r6, ip
 537              	.LVL81:
 538 0314 B243     		bic	r2, r2, r6
 539 0316 1343     		orr	r3, r3, r2
 540 0318 ED18     		add	r5, r5, r3
 541              	.LVL82:
 542 031a 4A46     		mov	r2, r9
 543 031c D541     		ror	r5, r5, r2
 544              	.LVL83:
 545 031e 2D19     		add	r5, r5, r4
 546              	.LVL84:
 258:rtos/common/ethernet/lwIP_132/src/netif/ppp/md5.c ****   GG ( b, c, d, a, in[ 4], S24, UL(3889429448)); /* 24 */
 547              		.loc 1 258 0
 548 0320 079B     		ldr	r3, [sp, #28]
 549 0322 644A     		ldr	r2, .L7+92
 550 0324 9E18     		add	r6, r3, r2
 551 0326 6644     		add	r6, r6, ip
 552 0328 2B1C     		mov	r3, r5
 553 032a 0B40     		and	r3, r3, r1
 554 032c 221C     		mov	r2, r4
 555 032e 8A43     		bic	r2, r2, r1
 556 0330 1343     		orr	r3, r3, r2
 557 0332 F618     		add	r6, r6, r3
 558              	.LVL85:
 559 0334 5346     		mov	r3, sl
 560 0336 DE41     		ror	r6, r6, r3
 561              	.LVL86:
 562 0338 7619     		add	r6, r6, r5
 563              	.LVL87:
 259:rtos/common/ethernet/lwIP_132/src/netif/ppp/md5.c ****   GG ( a, b, c, d, in[ 9], S21, UL( 568446438)); /* 25 */
 564              		.loc 1 259 0
 565 033a 0C9A     		ldr	r2, [sp, #48]
 566 033c 5E4B     		ldr	r3, .L7+96
 567 033e D218     		add	r2, r2, r3
 568 0340 9446     		mov	ip, r2
 569 0342 8C44     		add	ip, ip, r1
 570 0344 331C     		mov	r3, r6
 571 0346 2340     		and	r3, r3, r4
 572 0348 2A1C     		mov	r2, r5
 573 034a A243     		bic	r2, r2, r4
 574 034c 1343     		orr	r3, r3, r2
 575 034e 9C44     		add	ip, ip, r3
 576              	.LVL88:
 577 0350 6146     		mov	r1, ip
 578 0352 1B22     		mov	r2, #27
 579 0354 D141     		ror	r1, r1, r2
 580 0356 8C46     		mov	ip, r1
 581              	.LVL89:
 582 0358 B444     		add	ip, ip, r6
 583              	.LVL90:
 260:rtos/common/ethernet/lwIP_132/src/netif/ppp/md5.c ****   GG ( d, a, b, c, in[14], S22, UL(3275163606)); /* 26 */
 584              		.loc 1 260 0
 585 035a 5849     		ldr	r1, .L7+100
 586 035c 5944     		add	r1, r1, fp
 587 035e 0919     		add	r1, r1, r4
 588 0360 6346     		mov	r3, ip
 589 0362 2B40     		and	r3, r3, r5
 590 0364 321C     		mov	r2, r6
 591 0366 AA43     		bic	r2, r2, r5
 592 0368 1343     		orr	r3, r3, r2
 593 036a C918     		add	r1, r1, r3
 594              	.LVL91:
 595 036c F941     		ror	r1, r1, r7
 596              	.LVL92:
 597 036e 6144     		add	r1, r1, ip
 598              	.LVL93:
 261:rtos/common/ethernet/lwIP_132/src/netif/ppp/md5.c ****   GG ( c, d, a, b, in[ 3], S23, UL(4107603335)); /* 27 */
 599              		.loc 1 261 0
 600 0370 069B     		ldr	r3, [sp, #24]
 601 0372 534A     		ldr	r2, .L7+104
 602 0374 9C18     		add	r4, r3, r2
 603 0376 6419     		add	r4, r4, r5
 604 0378 0B1C     		mov	r3, r1
 605 037a 3340     		and	r3, r3, r6
 606 037c 6246     		mov	r2, ip
 607 037e B243     		bic	r2, r2, r6
 608 0380 1343     		orr	r3, r3, r2
 609 0382 E418     		add	r4, r4, r3
 610              	.LVL94:
 611 0384 4B46     		mov	r3, r9
 612 0386 DC41     		ror	r4, r4, r3
 613              	.LVL95:
 614 0388 6418     		add	r4, r4, r1
 615              	.LVL96:
 262:rtos/common/ethernet/lwIP_132/src/netif/ppp/md5.c ****   GG ( b, c, d, a, in[ 8], S24, UL(1163531501)); /* 28 */
 616              		.loc 1 262 0
 617 038a 0B9A     		ldr	r2, [sp, #44]
 618 038c 4D4B     		ldr	r3, .L7+108
 619 038e D518     		add	r5, r2, r3
 620 0390 AD19     		add	r5, r5, r6
 621 0392 6346     		mov	r3, ip
 622 0394 2340     		and	r3, r3, r4
 623 0396 0A1C     		mov	r2, r1
 624 0398 6646     		mov	r6, ip
 625              	.LVL97:
 626 039a B243     		bic	r2, r2, r6
 627 039c 1343     		orr	r3, r3, r2
 628 039e ED18     		add	r5, r5, r3
 629              	.LVL98:
 630 03a0 5246     		mov	r2, sl
 631 03a2 D541     		ror	r5, r5, r2
 632              	.LVL99:
 633 03a4 2D19     		add	r5, r5, r4
 634              	.LVL100:
 263:rtos/common/ethernet/lwIP_132/src/netif/ppp/md5.c ****   GG ( a, b, c, d, in[13], S21, UL(2850285829)); /* 29 */
 635              		.loc 1 263 0
 636 03a6 109B     		ldr	r3, [sp, #64]
 637 03a8 474A     		ldr	r2, .L7+112
 638 03aa 9E18     		add	r6, r3, r2
 639 03ac 6644     		add	r6, r6, ip
 640 03ae 2B1C     		mov	r3, r5
 641 03b0 0B40     		and	r3, r3, r1
 642 03b2 221C     		mov	r2, r4
 643 03b4 8A43     		bic	r2, r2, r1
 644 03b6 1343     		orr	r3, r3, r2
 645 03b8 F618     		add	r6, r6, r3
 646              	.LVL101:
 647 03ba 1B23     		mov	r3, #27
 648 03bc DE41     		ror	r6, r6, r3
 649              	.LVL102:
 650 03be 7619     		add	r6, r6, r5
 651              	.LVL103:
 264:rtos/common/ethernet/lwIP_132/src/netif/ppp/md5.c ****   GG ( d, a, b, c, in[ 2], S22, UL(4243563512)); /* 30 */
 652              		.loc 1 264 0
 653 03c0 059A     		ldr	r2, [sp, #20]
 654 03c2 424B     		ldr	r3, .L7+116
 655 03c4 D218     		add	r2, r2, r3
 656 03c6 9446     		mov	ip, r2
 657 03c8 8C44     		add	ip, ip, r1
 658 03ca 331C     		mov	r3, r6
 659 03cc 2340     		and	r3, r3, r4
 660 03ce 2A1C     		mov	r2, r5
 661 03d0 A243     		bic	r2, r2, r4
 662 03d2 1343     		orr	r3, r3, r2
 663 03d4 9C44     		add	ip, ip, r3
 664              	.LVL104:
 665 03d6 6146     		mov	r1, ip
 666 03d8 F941     		ror	r1, r1, r7
 667 03da 8C46     		mov	ip, r1
 668              	.LVL105:
 669 03dc B444     		add	ip, ip, r6
 670              	.LVL106:
 265:rtos/common/ethernet/lwIP_132/src/netif/ppp/md5.c ****   GG ( c, d, a, b, in[ 7], S23, UL(1735328473)); /* 31 */
 671              		.loc 1 265 0
 672 03de 0A9A     		ldr	r2, [sp, #40]
 673 03e0 3B4B     		ldr	r3, .L7+120
 674 03e2 D118     		add	r1, r2, r3
 675 03e4 0919     		add	r1, r1, r4
 676 03e6 6346     		mov	r3, ip
 677 03e8 2B40     		and	r3, r3, r5
 678 03ea 321C     		mov	r2, r6
 679 03ec AA43     		bic	r2, r2, r5
 680 03ee 1343     		orr	r3, r3, r2
 681 03f0 C918     		add	r1, r1, r3
 682              	.LVL107:
 683 03f2 4C46     		mov	r4, r9
 684 03f4 E141     		ror	r1, r1, r4
 685              	.LVL108:
 686 03f6 6144     		add	r1, r1, ip
 687              	.LVL109:
 266:rtos/common/ethernet/lwIP_132/src/netif/ppp/md5.c ****   GG ( b, c, d, a, in[12], S24, UL(2368359562)); /* 32 */
 688              		.loc 1 266 0
 689 03f8 0F9F     		ldr	r7, [sp, #60]
 690 03fa 364A     		ldr	r2, .L7+124
 691 03fc BF18     		add	r7, r7, r2
 692 03fe B846     		mov	r8, r7
 693 0400 A844     		add	r8, r8, r5
 694 0402 0B1C     		mov	r3, r1
 695 0404 3340     		and	r3, r3, r6
 696 0406 6246     		mov	r2, ip
 697 0408 B243     		bic	r2, r2, r6
 698 040a 1343     		orr	r3, r3, r2
 699 040c 9844     		add	r8, r8, r3
 700              	.LVL110:
 701 040e 4346     		mov	r3, r8
 702 0410 5446     		mov	r4, sl
 703 0412 E341     		ror	r3, r3, r4
 704 0414 9846     		mov	r8, r3
 705              	.LVL111:
 706 0416 8844     		add	r8, r8, r1
 707              	.LVL112:
 267:rtos/common/ethernet/lwIP_132/src/netif/ppp/md5.c **** 
 268:rtos/common/ethernet/lwIP_132/src/netif/ppp/md5.c ****   /* Round 3 */
 269:rtos/common/ethernet/lwIP_132/src/netif/ppp/md5.c **** #define S31 4
 270:rtos/common/ethernet/lwIP_132/src/netif/ppp/md5.c **** #define S32 11
 271:rtos/common/ethernet/lwIP_132/src/netif/ppp/md5.c **** #define S33 16
 272:rtos/common/ethernet/lwIP_132/src/netif/ppp/md5.c **** #define S34 23
 273:rtos/common/ethernet/lwIP_132/src/netif/ppp/md5.c ****   HH ( a, b, c, d, in[ 5], S31, UL(4294588738)); /* 33 */
 708              		.loc 1 273 0
 709 0418 089D     		ldr	r5, [sp, #32]
 710 041a 2F4F     		ldr	r7, .L7+128
 711 041c ED19     		add	r5, r5, r7
 712 041e AA46     		mov	sl, r5
 713 0420 B244     		add	sl, sl, r6
 714 0422 6346     		mov	r3, ip
 715 0424 4B40     		eor	r3, r3, r1
 716 0426 4246     		mov	r2, r8
 717 0428 5340     		eor	r3, r3, r2
 718 042a 9A44     		add	sl, sl, r3
 719              	.LVL113:
 720 042c 5346     		mov	r3, sl
 721 042e 1C24     		mov	r4, #28
 722 0430 E341     		ror	r3, r3, r4
 723 0432 9A46     		mov	sl, r3
 724              	.LVL114:
 725 0434 C244     		add	sl, sl, r8
 726              	.LVL115:
 274:rtos/common/ethernet/lwIP_132/src/netif/ppp/md5.c ****   HH ( d, a, b, c, in[ 8], S32, UL(2272392833)); /* 34 */
 727              		.loc 1 274 0
 728 0436 0B9D     		ldr	r5, [sp, #44]
 729 0438 284E     		ldr	r6, .L7+132
 730 043a AC19     		add	r4, r5, r6
 731 043c 6444     		add	r4, r4, ip
 732 043e 4346     		mov	r3, r8
 733 0440 4B40     		eor	r3, r3, r1
 734 0442 5746     		mov	r7, sl
 735 0444 7B40     		eor	r3, r3, r7
 736 0446 E418     		add	r4, r4, r3
 737              	.LVL116:
 738 0448 1527     		mov	r7, #21
 739 044a FC41     		ror	r4, r4, r7
 740              	.LVL117:
 741 044c 5444     		add	r4, r4, sl
 742              	.LVL118:
 275:rtos/common/ethernet/lwIP_132/src/netif/ppp/md5.c ****   HH ( c, d, a, b, in[11], S33, UL(1839030562)); /* 35 */
 743              		.loc 1 275 0
 744 044e 0E9A     		ldr	r2, [sp, #56]
 745 0450 234B     		ldr	r3, .L7+136
 746 0452 D518     		add	r5, r2, r3
 747 0454 6D18     		add	r5, r5, r1
 748 0456 45E0     		b	.L8
 749              	.L9:
 750              		.align	2
 751              	.L7:
 752 0458 78A46AD7 		.word	-680876936
 753 045c 56B7C7E8 		.word	-389564586
 754 0460 DB702024 		.word	606105819
 755 0464 EECEBDC1 		.word	-1044525330
 756 0468 AF0F7CF5 		.word	-176418897
 757 046c 2AC68747 		.word	1200080426
 758 0470 134630A8 		.word	-1473231341
 759 0474 019546FD 		.word	-45705983
 760 0478 D8988069 		.word	1770035416
 761 047c AFF7448B 		.word	-1958414417
 762 0480 B15BFFFF 		.word	-42063
 763 0484 BED75C89 		.word	-1990404162
 764 0488 2211906B 		.word	1804603682
 765 048c 937198FD 		.word	-40341101
 766 0490 8E4379A6 		.word	-1502002290
 767 0494 2108B449 		.word	1236535329
 768 0498 62251EF6 		.word	-165796510
 769 049c 40B340C0 		.word	-1069501632
 770 04a0 515A5E26 		.word	643717713
 771 04a4 AAC7B6E9 		.word	-373897302
 772 04a8 5D102FD6 		.word	-701558691
 773 04ac 53144402 		.word	38016083
 774 04b0 81E6A1D8 		.word	-660478335
 775 04b4 C8FBD3E7 		.word	-405537848
 776 04b8 E6CDE121 		.word	568446438
 777 04bc D60737C3 		.word	-1019803690
 778 04c0 870DD5F4 		.word	-187363961
 779 04c4 ED145A45 		.word	1163531501
 780 04c8 05E9E3A9 		.word	-1444681467
 781 04cc F8A3EFFC 		.word	-51403784
 782 04d0 D9026F67 		.word	1735328473
 783 04d4 8A4C2A8D 		.word	-1926607734
 784 04d8 4239FAFF 		.word	-378558
 785 04dc 81F67187 		.word	-2022574463
 786 04e0 22619D6D 		.word	1839030562
 787              	.L8:
 788 04e4 5346     		mov	r3, sl
 789 04e6 4646     		mov	r6, r8
 790 04e8 7340     		eor	r3, r3, r6
 791 04ea 6340     		eor	r3, r3, r4
 792 04ec ED18     		add	r5, r5, r3
 793              	.LVL119:
 794 04ee 1021     		mov	r1, #16
 795 04f0 8946     		mov	r9, r1
 796 04f2 CD41     		ror	r5, r5, r1
 797              	.LVL120:
 798 04f4 2D19     		add	r5, r5, r4
 799              	.LVL121:
 276:rtos/common/ethernet/lwIP_132/src/netif/ppp/md5.c ****   HH ( b, c, d, a, in[14], S34, UL(4259657740)); /* 36 */
 800              		.loc 1 276 0
 801 04f6 BB4E     		ldr	r6, .L10
 802 04f8 5E44     		add	r6, r6, fp
 803 04fa 4644     		add	r6, r6, r8
 804 04fc 5346     		mov	r3, sl
 805 04fe 6340     		eor	r3, r3, r4
 806 0500 6B40     		eor	r3, r3, r5
 807 0502 F618     		add	r6, r6, r3
 808              	.LVL122:
 809 0504 0922     		mov	r2, #9
 810 0506 9446     		mov	ip, r2
 811 0508 D641     		ror	r6, r6, r2
 812              	.LVL123:
 813 050a 7619     		add	r6, r6, r5
 814              	.LVL124:
 277:rtos/common/ethernet/lwIP_132/src/netif/ppp/md5.c ****   HH ( a, b, c, d, in[ 1], S31, UL(2763975236)); /* 37 */
 815              		.loc 1 277 0
 816 050c 049B     		ldr	r3, [sp, #16]
 817 050e B649     		ldr	r1, .L10+4
 818 0510 5A18     		add	r2, r3, r1
 819 0512 5244     		add	r2, r2, sl
 820 0514 2B1C     		mov	r3, r5
 821 0516 6340     		eor	r3, r3, r4
 822 0518 7340     		eor	r3, r3, r6
 823 051a D218     		add	r2, r2, r3
 824              	.LVL125:
 825 051c 1C23     		mov	r3, #28
 826 051e DA41     		ror	r2, r2, r3
 827              	.LVL126:
 828 0520 9219     		add	r2, r2, r6
 829              	.LVL127:
 278:rtos/common/ethernet/lwIP_132/src/netif/ppp/md5.c ****   HH ( d, a, b, c, in[ 4], S32, UL(1272893353)); /* 38 */
 830              		.loc 1 278 0
 831 0522 0799     		ldr	r1, [sp, #28]
 832 0524 B14B     		ldr	r3, .L10+8
 833 0526 C918     		add	r1, r1, r3
 834 0528 0919     		add	r1, r1, r4
 835 052a 331C     		mov	r3, r6
 836 052c 6B40     		eor	r3, r3, r5
 837 052e 5340     		eor	r3, r3, r2
 838 0530 C918     		add	r1, r1, r3
 839              	.LVL128:
 840 0532 F941     		ror	r1, r1, r7
 841              	.LVL129:
 842 0534 8918     		add	r1, r1, r2
 843              	.LVL130:
 279:rtos/common/ethernet/lwIP_132/src/netif/ppp/md5.c ****   HH ( c, d, a, b, in[ 7], S33, UL(4139469664)); /* 39 */
 844              		.loc 1 279 0
 845 0536 0A9C     		ldr	r4, [sp, #40]
 846 0538 AD4B     		ldr	r3, .L10+12
 847 053a E418     		add	r4, r4, r3
 848 053c 6419     		add	r4, r4, r5
 849 053e 131C     		mov	r3, r2
 850 0540 7340     		eor	r3, r3, r6
 851 0542 4B40     		eor	r3, r3, r1
 852 0544 E418     		add	r4, r4, r3
 853              	.LVL131:
 854 0546 4D46     		mov	r5, r9
 855 0548 EC41     		ror	r4, r4, r5
 856              	.LVL132:
 857 054a 6418     		add	r4, r4, r1
 858              	.LVL133:
 280:rtos/common/ethernet/lwIP_132/src/netif/ppp/md5.c ****   HH ( b, c, d, a, in[10], S34, UL(3200236656)); /* 40 */
 859              		.loc 1 280 0
 860 054c 0D9B     		ldr	r3, [sp, #52]
 861 054e A94D     		ldr	r5, .L10+16
 862 0550 5B19     		add	r3, r3, r5
 863 0552 9D19     		add	r5, r3, r6
 864 0554 0B1C     		mov	r3, r1
 865 0556 5340     		eor	r3, r3, r2
 866 0558 6340     		eor	r3, r3, r4
 867 055a ED18     		add	r5, r5, r3
 868              	.LVL134:
 869 055c 6646     		mov	r6, ip
 870 055e F541     		ror	r5, r5, r6
 871              	.LVL135:
 872 0560 2D19     		add	r5, r5, r4
 873              	.LVL136:
 281:rtos/common/ethernet/lwIP_132/src/netif/ppp/md5.c ****   HH ( a, b, c, d, in[13], S31, UL( 681279174)); /* 41 */
 874              		.loc 1 281 0
 875 0562 109B     		ldr	r3, [sp, #64]
 876 0564 A44E     		ldr	r6, .L10+20
 877 0566 9B19     		add	r3, r3, r6
 878 0568 9E18     		add	r6, r3, r2
 879 056a 231C     		mov	r3, r4
 880 056c 4B40     		eor	r3, r3, r1
 881 056e 6B40     		eor	r3, r3, r5
 882 0570 F618     		add	r6, r6, r3
 883              	.LVL137:
 884 0572 1C22     		mov	r2, #28
 885 0574 D641     		ror	r6, r6, r2
 886              	.LVL138:
 887 0576 7619     		add	r6, r6, r5
 888              	.LVL139:
 282:rtos/common/ethernet/lwIP_132/src/netif/ppp/md5.c ****   HH ( d, a, b, c, in[ 0], S32, UL(3936430074)); /* 42 */
 889              		.loc 1 282 0
 890 0578 039B     		ldr	r3, [sp, #12]
 891 057a A04A     		ldr	r2, .L10+24
 892 057c 9B18     		add	r3, r3, r2
 893 057e 5A18     		add	r2, r3, r1
 894 0580 2B1C     		mov	r3, r5
 895 0582 6340     		eor	r3, r3, r4
 896 0584 7340     		eor	r3, r3, r6
 897 0586 D218     		add	r2, r2, r3
 898              	.LVL140:
 899 0588 FA41     		ror	r2, r2, r7
 900              	.LVL141:
 901 058a 9219     		add	r2, r2, r6
 902              	.LVL142:
 283:rtos/common/ethernet/lwIP_132/src/netif/ppp/md5.c ****   HH ( c, d, a, b, in[ 3], S33, UL(3572445317)); /* 43 */
 903              		.loc 1 283 0
 904 058c 069B     		ldr	r3, [sp, #24]
 905 058e 9C49     		ldr	r1, .L10+28
 906 0590 5B18     		add	r3, r3, r1
 907 0592 1919     		add	r1, r3, r4
 908 0594 331C     		mov	r3, r6
 909 0596 6B40     		eor	r3, r3, r5
 910 0598 5340     		eor	r3, r3, r2
 911 059a C918     		add	r1, r1, r3
 912              	.LVL143:
 913 059c 4B46     		mov	r3, r9
 914 059e D941     		ror	r1, r1, r3
 915              	.LVL144:
 916 05a0 8918     		add	r1, r1, r2
 917              	.LVL145:
 284:rtos/common/ethernet/lwIP_132/src/netif/ppp/md5.c ****   HH ( b, c, d, a, in[ 6], S34, UL(  76029189)); /* 44 */
 918              		.loc 1 284 0
 919 05a2 099C     		ldr	r4, [sp, #36]
 920 05a4 974B     		ldr	r3, .L10+32
 921 05a6 E418     		add	r4, r4, r3
 922 05a8 6419     		add	r4, r4, r5
 923 05aa 131C     		mov	r3, r2
 924 05ac 7340     		eor	r3, r3, r6
 925 05ae 4B40     		eor	r3, r3, r1
 926 05b0 E418     		add	r4, r4, r3
 927              	.LVL146:
 928 05b2 6546     		mov	r5, ip
 929 05b4 EC41     		ror	r4, r4, r5
 930              	.LVL147:
 931 05b6 6418     		add	r4, r4, r1
 932              	.LVL148:
 285:rtos/common/ethernet/lwIP_132/src/netif/ppp/md5.c ****   HH ( a, b, c, d, in[ 9], S31, UL(3654602809)); /* 45 */
 933              		.loc 1 285 0
 934 05b8 0C9B     		ldr	r3, [sp, #48]
 935 05ba 934D     		ldr	r5, .L10+36
 936 05bc 5B19     		add	r3, r3, r5
 937 05be 9D19     		add	r5, r3, r6
 938 05c0 0B1C     		mov	r3, r1
 939 05c2 5340     		eor	r3, r3, r2
 940 05c4 6340     		eor	r3, r3, r4
 941 05c6 ED18     		add	r5, r5, r3
 942              	.LVL149:
 943 05c8 1C26     		mov	r6, #28
 944 05ca F541     		ror	r5, r5, r6
 945              	.LVL150:
 946 05cc 2D19     		add	r5, r5, r4
 947              	.LVL151:
 286:rtos/common/ethernet/lwIP_132/src/netif/ppp/md5.c ****   HH ( d, a, b, c, in[12], S32, UL(3873151461)); /* 46 */
 948              		.loc 1 286 0
 949 05ce 0F9B     		ldr	r3, [sp, #60]
 950 05d0 8E4E     		ldr	r6, .L10+40
 951 05d2 9B19     		add	r3, r3, r6
 952 05d4 9E18     		add	r6, r3, r2
 953 05d6 231C     		mov	r3, r4
 954 05d8 4B40     		eor	r3, r3, r1
 955 05da 6B40     		eor	r3, r3, r5
 956 05dc F618     		add	r6, r6, r3
 957              	.LVL152:
 958 05de FE41     		ror	r6, r6, r7
 959              	.LVL153:
 960 05e0 7619     		add	r6, r6, r5
 961              	.LVL154:
 287:rtos/common/ethernet/lwIP_132/src/netif/ppp/md5.c ****   HH ( c, d, a, b, in[15], S33, UL( 530742520)); /* 47 */
 962              		.loc 1 287 0
 963 05e2 119F     		ldr	r7, [sp, #68]
 964 05e4 8A4B     		ldr	r3, .L10+44
 965 05e6 FA18     		add	r2, r7, r3
 966 05e8 5218     		add	r2, r2, r1
 967 05ea 2B1C     		mov	r3, r5
 968 05ec 6340     		eor	r3, r3, r4
 969 05ee 7340     		eor	r3, r3, r6
 970 05f0 D218     		add	r2, r2, r3
 971              	.LVL155:
 972 05f2 4F46     		mov	r7, r9
 973 05f4 FA41     		ror	r2, r2, r7
 974              	.LVL156:
 975 05f6 9219     		add	r2, r2, r6
 976              	.LVL157:
 288:rtos/common/ethernet/lwIP_132/src/netif/ppp/md5.c ****   HH ( b, c, d, a, in[ 2], S34, UL(3299628645)); /* 48 */
 977              		.loc 1 288 0
 978 05f8 059B     		ldr	r3, [sp, #20]
 979 05fa 864F     		ldr	r7, .L10+48
 980 05fc D919     		add	r1, r3, r7
 981 05fe 0919     		add	r1, r1, r4
 982 0600 331C     		mov	r3, r6
 983 0602 6B40     		eor	r3, r3, r5
 984 0604 5340     		eor	r3, r3, r2
 985 0606 C918     		add	r1, r1, r3
 986              	.LVL158:
 987 0608 6346     		mov	r3, ip
 988 060a D941     		ror	r1, r1, r3
 989              	.LVL159:
 990 060c 8918     		add	r1, r1, r2
 991              	.LVL160:
 289:rtos/common/ethernet/lwIP_132/src/netif/ppp/md5.c **** 
 290:rtos/common/ethernet/lwIP_132/src/netif/ppp/md5.c ****   /* Round 4 */
 291:rtos/common/ethernet/lwIP_132/src/netif/ppp/md5.c **** #define S41 6
 292:rtos/common/ethernet/lwIP_132/src/netif/ppp/md5.c **** #define S42 10
 293:rtos/common/ethernet/lwIP_132/src/netif/ppp/md5.c **** #define S43 15
 294:rtos/common/ethernet/lwIP_132/src/netif/ppp/md5.c **** #define S44 21
 295:rtos/common/ethernet/lwIP_132/src/netif/ppp/md5.c ****   II ( a, b, c, d, in[ 0], S41, UL(4096336452)); /* 49 */
 992              		.loc 1 295 0
 993 060e 039C     		ldr	r4, [sp, #12]
 994 0610 814F     		ldr	r7, .L10+52
 995 0612 E319     		add	r3, r4, r7
 996 0614 5C19     		add	r4, r3, r5
 997 0616 F343     		mvn	r3, r6
 998 0618 0B43     		orr	r3, r3, r1
 999 061a 5340     		eor	r3, r3, r2
 1000 061c E318     		add	r3, r4, r3
 1001              	.LVL161:
 1002 061e 1A25     		mov	r5, #26
 1003 0620 EB41     		ror	r3, r3, r5
 1004              	.LVL162:
 1005 0622 5B18     		add	r3, r3, r1
 1006 0624 9846     		mov	r8, r3
 296:rtos/common/ethernet/lwIP_132/src/netif/ppp/md5.c ****   II ( d, a, b, c, in[ 7], S42, UL(1126891415)); /* 50 */
 1007              		.loc 1 296 0
 1008 0626 0A9B     		ldr	r3, [sp, #40]
 1009              	.LVL163:
 1010 0628 7C4F     		ldr	r7, .L10+56
 1011 062a DC19     		add	r4, r3, r7
 1012 062c A419     		add	r4, r4, r6
 1013 062e D343     		mvn	r3, r2
 1014 0630 4646     		mov	r6, r8
 1015              	.LVL164:
 1016 0632 3343     		orr	r3, r3, r6
 1017 0634 4B40     		eor	r3, r3, r1
 1018 0636 E318     		add	r3, r4, r3
 1019              	.LVL165:
 1020 0638 1624     		mov	r4, #22
 1021 063a E341     		ror	r3, r3, r4
 1022              	.LVL166:
 1023 063c 4344     		add	r3, r3, r8
 1024 063e 9C46     		mov	ip, r3
 297:rtos/common/ethernet/lwIP_132/src/netif/ppp/md5.c ****   II ( c, d, a, b, in[14], S43, UL(2878612391)); /* 51 */
 1025              		.loc 1 297 0
 1026 0640 774F     		ldr	r7, .L10+60
 1027 0642 BB44     		add	fp, fp, r7
 1028 0644 9344     		add	fp, fp, r2
 1029 0646 CB43     		mvn	r3, r1
 1030              	.LVL167:
 1031 0648 6246     		mov	r2, ip
 1032              	.LVL168:
 1033 064a 1343     		orr	r3, r3, r2
 1034 064c 7340     		eor	r3, r3, r6
 1035 064e 9B44     		add	fp, fp, r3
 1036              	.LVL169:
 1037 0650 1123     		mov	r3, #17
 1038 0652 9946     		mov	r9, r3
 1039 0654 5E46     		mov	r6, fp
 1040 0656 DE41     		ror	r6, r6, r3
 1041 0658 B346     		mov	fp, r6
 1042              	.LVL170:
 1043 065a E344     		add	fp, fp, ip
 1044              	.LVL171:
 298:rtos/common/ethernet/lwIP_132/src/netif/ppp/md5.c ****   II ( b, c, d, a, in[ 5], S44, UL(4237533241)); /* 52 */
 1045              		.loc 1 298 0
 1046 065c 089F     		ldr	r7, [sp, #32]
 1047 065e 714A     		ldr	r2, .L10+64
 1048 0660 BE18     		add	r6, r7, r2
 1049 0662 7118     		add	r1, r6, r1
 1050              	.LVL172:
 1051 0664 4646     		mov	r6, r8
 1052 0666 F343     		mvn	r3, r6
 1053 0668 5F46     		mov	r7, fp
 1054 066a 3B43     		orr	r3, r3, r7
 1055 066c 6246     		mov	r2, ip
 1056 066e 5340     		eor	r3, r3, r2
 1057 0670 CE18     		add	r6, r1, r3
 1058              	.LVL173:
 1059 0672 0B21     		mov	r1, #11
 1060 0674 331C     		mov	r3, r6
 1061 0676 CB41     		ror	r3, r3, r1
 1062              	.LVL174:
 1063 0678 DF19     		add	r7, r3, r7
 1064              	.LVL175:
 299:rtos/common/ethernet/lwIP_132/src/netif/ppp/md5.c ****   II ( a, b, c, d, in[12], S41, UL(1700485571)); /* 53 */
 1065              		.loc 1 299 0
 1066 067a 0F9B     		ldr	r3, [sp, #60]
 1067 067c 6A4E     		ldr	r6, .L10+68
 1068 067e 9B19     		add	r3, r3, r6
 1069 0680 9A46     		mov	sl, r3
 1070 0682 D044     		add	r8, r8, sl
 1071              	.LVL176:
 1072 0684 D243     		mvn	r2, r2
 1073 0686 131C     		mov	r3, r2
 1074 0688 3B43     		orr	r3, r3, r7
 1075 068a 5A46     		mov	r2, fp
 1076 068c 5340     		eor	r3, r3, r2
 1077 068e 4344     		add	r3, r3, r8
 1078              	.LVL177:
 1079 0690 EB41     		ror	r3, r3, r5
 1080              	.LVL178:
 1081 0692 DB19     		add	r3, r3, r7
 1082 0694 9846     		mov	r8, r3
 300:rtos/common/ethernet/lwIP_132/src/netif/ppp/md5.c ****   II ( d, a, b, c, in[ 3], S42, UL(2399980690)); /* 54 */
 1083              		.loc 1 300 0
 1084 0696 069B     		ldr	r3, [sp, #24]
 1085              	.LVL179:
 1086 0698 644E     		ldr	r6, .L10+72
 1087 069a 9B19     		add	r3, r3, r6
 1088 069c 1E1C     		mov	r6, r3
 1089 069e 6644     		add	r6, r6, ip
 1090 06a0 D243     		mvn	r2, r2
 1091 06a2 4346     		mov	r3, r8
 1092 06a4 1A43     		orr	r2, r2, r3
 1093 06a6 131C     		mov	r3, r2
 1094 06a8 7B40     		eor	r3, r3, r7
 1095 06aa F318     		add	r3, r6, r3
 1096              	.LVL180:
 1097 06ac E341     		ror	r3, r3, r4
 1098              	.LVL181:
 1099 06ae 4344     		add	r3, r3, r8
 1100 06b0 9C46     		mov	ip, r3
 301:rtos/common/ethernet/lwIP_132/src/netif/ppp/md5.c ****   II ( c, d, a, b, in[10], S43, UL(4293915773)); /* 55 */
 1101              		.loc 1 301 0
 1102 06b2 0D9E     		ldr	r6, [sp, #52]
 1103 06b4 5E4A     		ldr	r2, .L10+76
 1104 06b6 B618     		add	r6, r6, r2
 1105 06b8 B246     		mov	sl, r6
 1106 06ba DA44     		add	sl, sl, fp
 1107 06bc FB43     		mvn	r3, r7
 1108              	.LVL182:
 1109 06be 6646     		mov	r6, ip
 1110 06c0 3343     		orr	r3, r3, r6
 1111 06c2 4246     		mov	r2, r8
 1112 06c4 5340     		eor	r3, r3, r2
 1113 06c6 5246     		mov	r2, sl
 1114 06c8 D618     		add	r6, r2, r3
 1115              	.LVL183:
 1116 06ca 4B46     		mov	r3, r9
 1117 06cc DE41     		ror	r6, r6, r3
 1118              	.LVL184:
 1119 06ce 6644     		add	r6, r6, ip
 1120              	.LVL185:
 302:rtos/common/ethernet/lwIP_132/src/netif/ppp/md5.c ****   II ( b, c, d, a, in[ 1], S44, UL(2240044497)); /* 56 */
 1121              		.loc 1 302 0
 1122 06d0 049A     		ldr	r2, [sp, #16]
 1123 06d2 584B     		ldr	r3, .L10+80
 1124 06d4 D218     		add	r2, r2, r3
 1125 06d6 9246     		mov	sl, r2
 1126 06d8 5744     		add	r7, r7, sl
 1127              	.LVL186:
 1128 06da 4246     		mov	r2, r8
 1129 06dc D343     		mvn	r3, r2
 1130 06de 3343     		orr	r3, r3, r6
 1131 06e0 6246     		mov	r2, ip
 1132 06e2 5340     		eor	r3, r3, r2
 1133 06e4 FB18     		add	r3, r7, r3
 1134              	.LVL187:
 1135 06e6 CB41     		ror	r3, r3, r1
 1136              	.LVL188:
 1137 06e8 9F19     		add	r7, r3, r6
 1138              	.LVL189:
 303:rtos/common/ethernet/lwIP_132/src/netif/ppp/md5.c ****   II ( a, b, c, d, in[ 8], S41, UL(1873313359)); /* 57 */
 1139              		.loc 1 303 0
 1140 06ea 0B9B     		ldr	r3, [sp, #44]
 1141 06ec 524A     		ldr	r2, .L10+84
 1142 06ee 9B18     		add	r3, r3, r2
 1143 06f0 9A46     		mov	sl, r3
 1144 06f2 D044     		add	r8, r8, sl
 1145              	.LVL190:
 1146 06f4 6246     		mov	r2, ip
 1147 06f6 D343     		mvn	r3, r2
 1148 06f8 3B43     		orr	r3, r3, r7
 1149 06fa 7340     		eor	r3, r3, r6
 1150 06fc 4344     		add	r3, r3, r8
 1151              	.LVL191:
 1152 06fe EB41     		ror	r3, r3, r5
 1153              	.LVL192:
 1154 0700 DB19     		add	r3, r3, r7
 1155 0702 9A46     		mov	sl, r3
 304:rtos/common/ethernet/lwIP_132/src/netif/ppp/md5.c ****   II ( d, a, b, c, in[15], S42, UL(4264355552)); /* 58 */
 1156              		.loc 1 304 0
 1157 0704 119B     		ldr	r3, [sp, #68]
 1158              	.LVL193:
 1159 0706 4D4A     		ldr	r2, .L10+88
 1160 0708 9B18     		add	r3, r3, r2
 1161 070a 9846     		mov	r8, r3
 1162 070c C444     		add	ip, ip, r8
 1163              	.LVL194:
 1164 070e F343     		mvn	r3, r6
 1165 0710 5246     		mov	r2, sl
 1166 0712 1343     		orr	r3, r3, r2
 1167 0714 7B40     		eor	r3, r3, r7
 1168 0716 6344     		add	r3, r3, ip
 1169              	.LVL195:
 1170 0718 E341     		ror	r3, r3, r4
 1171              	.LVL196:
 1172 071a 5344     		add	r3, r3, sl
 1173 071c 9846     		mov	r8, r3
 305:rtos/common/ethernet/lwIP_132/src/netif/ppp/md5.c ****   II ( c, d, a, b, in[ 6], S43, UL(2734768916)); /* 59 */
 1174              		.loc 1 305 0
 1175 071e 099B     		ldr	r3, [sp, #36]
 1176              	.LVL197:
 1177 0720 474A     		ldr	r2, .L10+92
 1178 0722 9B18     		add	r3, r3, r2
 1179 0724 9C46     		mov	ip, r3
 1180 0726 6644     		add	r6, r6, ip
 1181              	.LVL198:
 1182 0728 FB43     		mvn	r3, r7
 1183 072a 4246     		mov	r2, r8
 1184 072c 1343     		orr	r3, r3, r2
 1185 072e 5246     		mov	r2, sl
 1186 0730 5340     		eor	r3, r3, r2
 1187 0732 F318     		add	r3, r6, r3
 1188              	.LVL199:
 1189 0734 4E46     		mov	r6, r9
 1190 0736 F341     		ror	r3, r3, r6
 1191              	.LVL200:
 1192 0738 4344     		add	r3, r3, r8
 1193 073a 9C46     		mov	ip, r3
 306:rtos/common/ethernet/lwIP_132/src/netif/ppp/md5.c ****   II ( b, c, d, a, in[13], S44, UL(1309151649)); /* 60 */
 1194              		.loc 1 306 0
 1195 073c 109A     		ldr	r2, [sp, #64]
 1196 073e 414B     		ldr	r3, .L10+96
 1197              	.LVL201:
 1198 0740 D618     		add	r6, r2, r3
 1199 0742 F619     		add	r6, r6, r7
 1200 0744 5746     		mov	r7, sl
 1201              	.LVL202:
 1202 0746 FB43     		mvn	r3, r7
 1203 0748 6246     		mov	r2, ip
 1204 074a 1343     		orr	r3, r3, r2
 1205 074c 4746     		mov	r7, r8
 1206 074e 7B40     		eor	r3, r3, r7
 1207 0750 F318     		add	r3, r6, r3
 1208              	.LVL203:
 1209 0752 CB41     		ror	r3, r3, r1
 1210              	.LVL204:
 1211 0754 9F18     		add	r7, r3, r2
 1212              	.LVL205:
 307:rtos/common/ethernet/lwIP_132/src/netif/ppp/md5.c ****   II ( a, b, c, d, in[ 4], S41, UL(4149444226)); /* 61 */
 1213              		.loc 1 307 0
 1214 0756 079A     		ldr	r2, [sp, #28]
 1215 0758 3B4B     		ldr	r3, .L10+100
 1216 075a D618     		add	r6, r2, r3
 1217 075c 5644     		add	r6, r6, sl
 1218 075e 4246     		mov	r2, r8
 1219 0760 D343     		mvn	r3, r2
 1220 0762 3B43     		orr	r3, r3, r7
 1221 0764 6246     		mov	r2, ip
 1222 0766 5340     		eor	r3, r3, r2
 1223 0768 F318     		add	r3, r6, r3
 1224              	.LVL206:
 1225 076a EB41     		ror	r3, r3, r5
 1226              	.LVL207:
 1227 076c DE19     		add	r6, r3, r7
 1228              	.LVL208:
 308:rtos/common/ethernet/lwIP_132/src/netif/ppp/md5.c ****   II ( d, a, b, c, in[11], S42, UL(3174756917)); /* 62 */
 1229              		.loc 1 308 0
 1230 076e 0E9B     		ldr	r3, [sp, #56]
 1231 0770 364A     		ldr	r2, .L10+104
 1232 0772 9D18     		add	r5, r3, r2
 1233 0774 4544     		add	r5, r5, r8
 1234 0776 6246     		mov	r2, ip
 1235 0778 D343     		mvn	r3, r2
 1236 077a 3343     		orr	r3, r3, r6
 1237 077c 7B40     		eor	r3, r3, r7
 1238 077e EB18     		add	r3, r5, r3
 1239              	.LVL209:
 1240 0780 E341     		ror	r3, r3, r4
 1241              	.LVL210:
 1242 0782 9B19     		add	r3, r3, r6
 1243 0784 9846     		mov	r8, r3
 309:rtos/common/ethernet/lwIP_132/src/netif/ppp/md5.c ****   II ( c, d, a, b, in[ 2], S43, UL( 718787259)); /* 63 */
 1244              		.loc 1 309 0
 1245 0786 059C     		ldr	r4, [sp, #20]
 1246 0788 314D     		ldr	r5, .L10+108
 1247 078a 6319     		add	r3, r4, r5
 1248              	.LVL211:
 1249 078c 9C18     		add	r4, r3, r2
 1250 078e FB43     		mvn	r3, r7
 1251 0790 4246     		mov	r2, r8
 1252 0792 1343     		orr	r3, r3, r2
 1253 0794 7340     		eor	r3, r3, r6
 1254 0796 E318     		add	r3, r4, r3
 1255              	.LVL212:
 1256 0798 4C46     		mov	r4, r9
 1257 079a E341     		ror	r3, r3, r4
 1258              	.LVL213:
 1259 079c 9C18     		add	r4, r3, r2
 1260              	.LVL214:
 310:rtos/common/ethernet/lwIP_132/src/netif/ppp/md5.c ****   II ( b, c, d, a, in[ 9], S44, UL(3951481745)); /* 64 */
 1261              		.loc 1 310 0
 1262 079e 0C9A     		ldr	r2, [sp, #48]
 1263 07a0 2C4B     		ldr	r3, .L10+112
 1264 07a2 D518     		add	r5, r2, r3
 1265 07a4 EA19     		add	r2, r5, r7
 1266 07a6 F343     		mvn	r3, r6
 1267 07a8 2343     		orr	r3, r3, r4
 1268 07aa 4546     		mov	r5, r8
 1269 07ac 6B40     		eor	r3, r3, r5
 1270 07ae D518     		add	r5, r2, r3
 1271              	.LVL215:
 311:rtos/common/ethernet/lwIP_132/src/netif/ppp/md5.c **** 
 312:rtos/common/ethernet/lwIP_132/src/netif/ppp/md5.c ****   buf[0] += a;
 1272              		.loc 1 312 0
 1273 07b0 129F     		ldr	r7, [sp, #72]
 1274 07b2 F219     		add	r2, r6, r7
 1275 07b4 0260     		str	r2, [r0]
 313:rtos/common/ethernet/lwIP_132/src/netif/ppp/md5.c ****   buf[1] += b;
 1276              		.loc 1 313 0
 1277 07b6 009A     		ldr	r2, [sp]
 1278 07b8 1368     		ldr	r3, [r2]
 1279 07ba E318     		add	r3, r4, r3
 1280 07bc CD41     		ror	r5, r5, r1
 1281 07be 5B19     		add	r3, r3, r5
 1282              	.LVL216:
 1283 07c0 1360     		str	r3, [r2]
 314:rtos/common/ethernet/lwIP_132/src/netif/ppp/md5.c ****   buf[2] += c;
 1284              		.loc 1 314 0
 1285 07c2 019D     		ldr	r5, [sp, #4]
 1286 07c4 2B68     		ldr	r3, [r5]
 1287 07c6 1B19     		add	r3, r3, r4
 1288 07c8 2B60     		str	r3, [r5]
 315:rtos/common/ethernet/lwIP_132/src/netif/ppp/md5.c ****   buf[3] += d;
 1289              		.loc 1 315 0
 1290 07ca 029E     		ldr	r6, [sp, #8]
 1291              	.LVL217:
 1292 07cc 3368     		ldr	r3, [r6]
 1293 07ce 4344     		add	r3, r3, r8
 1294 07d0 3360     		str	r3, [r6]
 316:rtos/common/ethernet/lwIP_132/src/netif/ppp/md5.c **** }
 1295              		.loc 1 316 0
 1296 07d2 13B0     		add	sp, sp, #76
 1297              		@ sp needed for prologue
 1298              	.LVL218:
 1299              	.LVL219:
 1300 07d4 3CBC     		pop	{r2, r3, r4, r5}
 1301 07d6 9046     		mov	r8, r2
 1302 07d8 9946     		mov	r9, r3
 1303 07da A246     		mov	sl, r4
 1304 07dc AB46     		mov	fp, r5
 1305 07de F0BC     		pop	{r4, r5, r6, r7}
 1306 07e0 01BC     		pop	{r0}
 1307 07e2 0047     		bx	r0
 1308              	.L11:
 1309              		.align	2
 1310              	.L10:
 1311 07e4 0C38E5FD 		.word	-35309556
 1312 07e8 44EABEA4 		.word	-1530992060
 1313 07ec A9CFDE4B 		.word	1272893353
 1314 07f0 604BBBF6 		.word	-155497632
 1315 07f4 70BCBFBE 		.word	-1094730640
 1316 07f8 C67E9B28 		.word	681279174
 1317 07fc FA27A1EA 		.word	-358537222
 1318 0800 8530EFD4 		.word	-722521979
 1319 0804 051D8804 		.word	76029189
 1320 0808 39D0D4D9 		.word	-640364487
 1321 080c E599DBE6 		.word	-421815835
 1322 0810 F87CA21F 		.word	530742520
 1323 0814 6556ACC4 		.word	-995338651
 1324 0818 442229F4 		.word	-198630844
 1325 081c 97FF2A43 		.word	1126891415
 1326 0820 A72394AB 		.word	-1416354905
 1327 0824 39A093FC 		.word	-57434055
 1328 0828 C3595B65 		.word	1700485571
 1329 082c 92CC0C8F 		.word	-1894986606
 1330 0830 7DF4EFFF 		.word	-1051523
 1331 0834 D15D8485 		.word	-2054922799
 1332 0838 4F7EA86F 		.word	1873313359
 1333 083c E0E62CFE 		.word	-30611744
 1334 0840 144301A3 		.word	-1560198380
 1335 0844 A111084E 		.word	1309151649
 1336 0848 827E53F7 		.word	-145523070
 1337 084c 35F23ABD 		.word	-1120210379
 1338 0850 BBD2D72A 		.word	718787259
 1339 0854 91D386EB 		.word	-343485551
 1340              	.LFE293:
 1342              		.align	2
 1343              		.global	MD5Update
 1344              		.code	16
 1345              		.thumb_func
 1347              	MD5Update:
 1348              	.LFB291:
 1349              		.loc 1 135 0
 1350 0858 F0B5     		push	{r4, r5, r6, r7, lr}
 1351              	.LCFI3:
 1352 085a 5746     		mov	r7, sl
 1353 085c 4E46     		mov	r6, r9
 1354 085e 4546     		mov	r5, r8
 1355 0860 E0B4     		push	{r5, r6, r7}
 1356              	.LCFI4:
 1357              	.LVL220:
 1358 0862 90B0     		sub	sp, sp, #64
 1359              	.LCFI5:
 1360 0864 061C     		mov	r6, r0
 1361 0866 0D1C     		mov	r5, r1
 1362 0868 141C     		mov	r4, r2
 1363              		.loc 1 146 0
 1364 086a 0268     		ldr	r2, [r0]
 1365              	.LVL221:
 1366              		.loc 1 149 0
 1367 086c E000     		lsl	r0, r4, #3
 1368              	.LVL222:
 1369 086e 8318     		add	r3, r0, r2
 1370 0870 9A42     		cmp	r2, r3
 1371 0872 02D9     		bls	.L13
 1372              	.LVL223:
 1373              		.loc 1 150 0
 1374 0874 7368     		ldr	r3, [r6, #4]
 1375 0876 0133     		add	r3, r3, #1
 1376 0878 7360     		str	r3, [r6, #4]
 1377              	.L13:
 1378              		.loc 1 146 0
 1379 087a D305     		lsl	r3, r2, #23
 1380 087c 990E     		lsr	r1, r3, #26
 1381              	.LVL224:
 1382              		.loc 1 152 0
 1383 087e 3368     		ldr	r3, [r6]
 1384 0880 1B18     		add	r3, r3, r0
 1385 0882 3360     		str	r3, [r6]
 1386              		.loc 1 153 0
 1387 0884 620F     		lsr	r2, r4, #29
 1388 0886 7368     		ldr	r3, [r6, #4]
 1389 0888 9B18     		add	r3, r3, r2
 1390 088a 7360     		str	r3, [r6, #4]
 1391              		.loc 1 167 0
 1392 088c 0823     		mov	r3, #8
 1393 088e 9B19     		add	r3, r3, r6
 1394 0890 9846     		mov	r8, r3
 1395              		.loc 1 160 0
 1396 0892 371C     		mov	r7, r6
 1397 0894 1837     		add	r7, r7, #24
 1398 0896 EA46     		mov	sl, sp
 1399              		.loc 1 167 0
 1400 0898 0023     		mov	r3, #0
 1401 089a 9946     		mov	r9, r3
 1402              	.LVL225:
 1403 089c 1DE0     		b	.L14
 1404              	.LVL226:
 1405              	.L17:
 1406              		.loc 1 157 0
 1407 089e 7218     		add	r2, r6, r1
 1408 08a0 2B78     		ldrb	r3, [r5]
 1409 08a2 1376     		strb	r3, [r2, #24]
 1410 08a4 0131     		add	r1, r1, #1
 1411              	.LVL227:
 1412              		.loc 1 160 0
 1413 08a6 4029     		cmp	r1, #64
 1414 08a8 15D1     		bne	.L15
 1415 08aa 391C     		mov	r1, r7
 1416              	.LVL228:
 1417 08ac 5046     		mov	r0, sl
 1418              	.L16:
 1419              		.loc 1 162 0
 1420 08ae CA78     		ldrb	r2, [r1, #3]
 1421 08b0 1206     		lsl	r2, r2, #24
 1422 08b2 8B78     		ldrb	r3, [r1, #2]
 1423 08b4 1B04     		lsl	r3, r3, #16
 1424 08b6 1A43     		orr	r2, r2, r3
 1425 08b8 0B78     		ldrb	r3, [r1]
 1426 08ba 1A43     		orr	r2, r2, r3
 1427 08bc 4B78     		ldrb	r3, [r1, #1]
 1428 08be 1B02     		lsl	r3, r3, #8
 1429 08c0 1A43     		orr	r2, r2, r3
 1430 08c2 04C0     		stmia	r0!, {r2}
 1431 08c4 0431     		add	r1, r1, #4
 1432              		.loc 1 161 0
 1433 08c6 10AB     		add	r3, sp, #64
 1434 08c8 9842     		cmp	r0, r3
 1435 08ca F0D1     		bne	.L16
 1436              		.loc 1 167 0
 1437 08cc 4046     		mov	r0, r8
 1438 08ce 6946     		mov	r1, sp
 1439 08d0 FFF7AAFB 		bl	Transform
 1440 08d4 4946     		mov	r1, r9
 1441              	.LVL229:
 1442              	.L15:
 1443              		.loc 1 157 0
 1444 08d6 0135     		add	r5, r5, #1
 1445 08d8 013C     		sub	r4, r4, #1
 1446              	.LVL230:
 1447              	.L14:
 1448              		.loc 1 155 0
 1449 08da 002C     		cmp	r4, #0
 1450 08dc DFD1     		bne	.L17
 1451              		.loc 1 171 0
 1452 08de 10B0     		add	sp, sp, #64
 1453              		@ sp needed for prologue
 1454              	.LVL231:
 1455              	.LVL232:
 1456              	.LVL233:
 1457              	.LVL234:
 1458 08e0 1CBC     		pop	{r2, r3, r4}
 1459 08e2 9046     		mov	r8, r2
 1460 08e4 9946     		mov	r9, r3
 1461 08e6 A246     		mov	sl, r4
 1462 08e8 F0BC     		pop	{r4, r5, r6, r7}
 1463 08ea 01BC     		pop	{r0}
 1464 08ec 0047     		bx	r0
 1465              	.LFE291:
 1467 08ee C046     		.align	2
 1468              		.global	MD5Final
 1469              		.code	16
 1470              		.thumb_func
 1472              	MD5Final:
 1473              	.LFB292:
 1474              		.loc 1 178 0
 1475 08f0 70B5     		push	{r4, r5, r6, lr}
 1476              	.LCFI6:
 1477              	.LVL235:
 1478 08f2 90B0     		sub	sp, sp, #64
 1479              	.LCFI7:
 1480 08f4 061C     		mov	r6, r0
 1481 08f6 0D1C     		mov	r5, r1
 1482              		.loc 1 185 0
 1483 08f8 0A68     		ldr	r2, [r1]
 1484 08fa 0E92     		str	r2, [sp, #56]
 1485              		.loc 1 186 0
 1486 08fc 4968     		ldr	r1, [r1, #4]
 1487              	.LVL236:
 1488 08fe 0F91     		str	r1, [sp, #60]
 1489              		.loc 1 189 0
 1490 0900 D205     		lsl	r2, r2, #23
 1491 0902 920E     		lsr	r2, r2, #26
 1492              	.LVL237:
 1493              		.loc 1 192 0
 1494 0904 372A     		cmp	r2, #55
 1495 0906 02DC     		bgt	.L21
 1496              	.LVL238:
 1497 0908 3823     		mov	r3, #56
 1498 090a 9A1A     		sub	r2, r3, r2
 1499              	.LVL239:
 1500 090c 01E0     		b	.L22
 1501              	.LVL240:
 1502              	.L21:
 1503 090e 7823     		mov	r3, #120
 1504 0910 9A1A     		sub	r2, r3, r2
 1505              	.LVL241:
 1506              	.L22:
 1507              		.loc 1 193 0
 1508 0912 1A49     		ldr	r1, .L28
 1509 0914 281C     		mov	r0, r5
 1510 0916 FFF7FEFF 		bl	MD5Update
 1511              	.LVL242:
 1512 091a 291C     		mov	r1, r5
 1513 091c 1831     		add	r1, r1, #24
 1514 091e 6846     		mov	r0, sp
 1515              		.loc 1 196 0
 1516 0920 0EAC     		add	r4, sp, #56
 1517              	.L23:
 1518              		.loc 1 197 0
 1519 0922 CA78     		ldrb	r2, [r1, #3]
 1520 0924 1206     		lsl	r2, r2, #24
 1521 0926 8B78     		ldrb	r3, [r1, #2]
 1522 0928 1B04     		lsl	r3, r3, #16
 1523 092a 1A43     		orr	r2, r2, r3
 1524 092c 0B78     		ldrb	r3, [r1]
 1525 092e 1A43     		orr	r2, r2, r3
 1526 0930 4B78     		ldrb	r3, [r1, #1]
 1527 0932 1B02     		lsl	r3, r3, #8
 1528 0934 1A43     		orr	r2, r2, r3
 1529 0936 04C0     		stmia	r0!, {r2}
 1530 0938 0431     		add	r1, r1, #4
 1531              		.loc 1 196 0
 1532 093a A042     		cmp	r0, r4
 1533 093c F1D1     		bne	.L23
 1534              		.loc 1 202 0
 1535 093e 281C     		mov	r0, r5
 1536 0940 0830     		add	r0, r0, #8
 1537 0942 6946     		mov	r1, sp
 1538 0944 FFF770FB 		bl	Transform
 1539 0948 2C1C     		mov	r4, r5
 1540              		.loc 1 178 0
 1541 094a 5835     		add	r5, r5, #88
 1542              	.LVL243:
 1543 094c 291C     		mov	r1, r5
 1544 094e 0020     		mov	r0, #0
 1545              	.LVL244:
 1546              	.L24:
 1547              		.loc 1 206 0
 1548 0950 A368     		ldr	r3, [r4, #8]
 1549 0952 0B70     		strb	r3, [r1]
 1550              		.loc 1 207 0
 1551 0954 1A0A     		lsr	r2, r3, #8
 1552 0956 4A70     		strb	r2, [r1, #1]
 1553              		.loc 1 209 0
 1554 0958 1A0C     		lsr	r2, r3, #16
 1555 095a 8A70     		strb	r2, [r1, #2]
 1556              		.loc 1 211 0
 1557 095c 1B0E     		lsr	r3, r3, #24
 1558 095e CB70     		strb	r3, [r1, #3]
 1559              		.loc 1 205 0
 1560 0960 0430     		add	r0, r0, #4
 1561 0962 0434     		add	r4, r4, #4
 1562 0964 0431     		add	r1, r1, #4
 1563 0966 1028     		cmp	r0, #16
 1564 0968 F2D1     		bne	.L24
 1565              		.loc 1 214 0
 1566 096a 301C     		mov	r0, r6
 1567              	.LVL245:
 1568 096c 291C     		mov	r1, r5
 1569 096e 1022     		mov	r2, #16
 1570 0970 FFF7FEFF 		bl	memcpy
 1571              		.loc 1 215 0
 1572 0974 10B0     		add	sp, sp, #64
 1573              		@ sp needed for prologue
 1574              	.LVL246:
 1575 0976 70BC     		pop	{r4, r5, r6}
 1576 0978 01BC     		pop	{r0}
 1577 097a 0047     		bx	r0
 1578              	.L29:
 1579              		.align	2
 1580              	.L28:
 1581 097c 00000000 		.word	PADDING
 1582              	.LFE292:
 1584              		.data
 1587              	PADDING:
 1588 0000 80       		.byte	-128
 1589 0001 00       		.byte	0
 1590 0002 00       		.byte	0
 1591 0003 00       		.byte	0
 1592 0004 00       		.byte	0
 1593 0005 00       		.byte	0
 1594 0006 00       		.byte	0
 1595 0007 00       		.byte	0
 1596 0008 00       		.byte	0
 1597 0009 00       		.byte	0
 1598 000a 00       		.byte	0
 1599 000b 00       		.byte	0
 1600 000c 00       		.byte	0
 1601 000d 00       		.byte	0
 1602 000e 00       		.byte	0
 1603 000f 00       		.byte	0
 1604 0010 00       		.byte	0
 1605 0011 00       		.byte	0
 1606 0012 00       		.byte	0
 1607 0013 00       		.byte	0
 1608 0014 00       		.byte	0
 1609 0015 00       		.byte	0
 1610 0016 00       		.byte	0
 1611 0017 00       		.byte	0
 1612 0018 00       		.byte	0
 1613 0019 00       		.byte	0
 1614 001a 00       		.byte	0
 1615 001b 00       		.byte	0
 1616 001c 00       		.byte	0
 1617 001d 00       		.byte	0
 1618 001e 00       		.byte	0
 1619 001f 00       		.byte	0
 1620 0020 00       		.byte	0
 1621 0021 00       		.byte	0
 1622 0022 00       		.byte	0
 1623 0023 00       		.byte	0
 1624 0024 00       		.byte	0
 1625 0025 00       		.byte	0
 1626 0026 00       		.byte	0
 1627 0027 00       		.byte	0
 1628 0028 00       		.byte	0
 1629 0029 00       		.byte	0
 1630 002a 00       		.byte	0
 1631 002b 00       		.byte	0
 1632 002c 00       		.byte	0
 1633 002d 00       		.byte	0
 1634 002e 00       		.byte	0
 1635 002f 00       		.byte	0
 1636 0030 00       		.byte	0
 1637 0031 00       		.byte	0
 1638 0032 00       		.byte	0
 1639 0033 00       		.byte	0
 1640 0034 00       		.byte	0
 1641 0035 00       		.byte	0
 1642 0036 00       		.byte	0
 1643 0037 00       		.byte	0
 1644 0038 00       		.byte	0
 1645 0039 00       		.byte	0
 1646 003a 00       		.byte	0
 1647 003b 00       		.byte	0
 1648 003c 00       		.byte	0
 1649 003d 00       		.byte	0
 1650 003e 00       		.byte	0
 1651 003f 00       		.byte	0
 1774              	.Letext0:
DEFINED SYMBOLS
                            *ABS*:00000000 md5.c
     /tmp/ccGNa3Bm.s:1      .text:00000000 $t
     /tmp/ccGNa3Bm.s:16     .text:00000000 MD5Init
     /tmp/ccGNa3Bm.s:43     .text:00000018 $d
     /tmp/ccGNa3Bm.s:50     .text:00000028 $t
     /tmp/ccGNa3Bm.s:53     .text:00000028 Transform
     /tmp/ccGNa3Bm.s:752    .text:00000458 $d
     /tmp/ccGNa3Bm.s:788    .text:000004e4 $t
     /tmp/ccGNa3Bm.s:1311   .text:000007e4 $d
     /tmp/ccGNa3Bm.s:1347   .text:00000858 MD5Update
     /tmp/ccGNa3Bm.s:1344   .text:00000858 $t
     /tmp/ccGNa3Bm.s:1472   .text:000008f0 MD5Final
     /tmp/ccGNa3Bm.s:1581   .text:0000097c $d
     /tmp/ccGNa3Bm.s:1587   .data:00000000 PADDING
     /tmp/ccGNa3Bm.s:1588   .data:00000000 $d

UNDEFINED SYMBOLS
memcpy
